
bomb:     file format elf32-i386


Disassembly of section .init:

080486f4 <_init>:
 80486f4:	53                   	push   %ebx
 80486f5:	83 ec 08             	sub    $0x8,%esp
 80486f8:	e8 13 02 00 00       	call   8048910 <__x86.get_pc_thunk.bx>
 80486fd:	81 c3 03 39 00 00    	add    $0x3903,%ebx
 8048703:	8b 83 fc ff ff ff    	mov    -0x4(%ebx),%eax
 8048709:	85 c0                	test   %eax,%eax
 804870b:	74 05                	je     8048712 <_init+0x1e>
 804870d:	e8 be 01 00 00       	call   80488d0 <__sprintf_chk@plt+0x10>
 8048712:	83 c4 08             	add    $0x8,%esp
 8048715:	5b                   	pop    %ebx
 8048716:	c3                   	ret    

Disassembly of section .plt:

08048720 <read@plt-0x10>:
 8048720:	ff 35 04 c0 04 08    	pushl  0x804c004
 8048726:	ff 25 08 c0 04 08    	jmp    *0x804c008
 804872c:	00 00                	add    %al,(%eax)
	...

08048730 <read@plt>:
 8048730:	ff 25 0c c0 04 08    	jmp    *0x804c00c
 8048736:	68 00 00 00 00       	push   $0x0
 804873b:	e9 e0 ff ff ff       	jmp    8048720 <_init+0x2c>

08048740 <fflush@plt>:
 8048740:	ff 25 10 c0 04 08    	jmp    *0x804c010
 8048746:	68 08 00 00 00       	push   $0x8
 804874b:	e9 d0 ff ff ff       	jmp    8048720 <_init+0x2c>

08048750 <fgets@plt>:
 8048750:	ff 25 14 c0 04 08    	jmp    *0x804c014
 8048756:	68 10 00 00 00       	push   $0x10
 804875b:	e9 c0 ff ff ff       	jmp    8048720 <_init+0x2c>

08048760 <signal@plt>:
 8048760:	ff 25 18 c0 04 08    	jmp    *0x804c018
 8048766:	68 18 00 00 00       	push   $0x18
 804876b:	e9 b0 ff ff ff       	jmp    8048720 <_init+0x2c>

08048770 <sleep@plt>:
 8048770:	ff 25 1c c0 04 08    	jmp    *0x804c01c
 8048776:	68 20 00 00 00       	push   $0x20
 804877b:	e9 a0 ff ff ff       	jmp    8048720 <_init+0x2c>

08048780 <alarm@plt>:
 8048780:	ff 25 20 c0 04 08    	jmp    *0x804c020
 8048786:	68 28 00 00 00       	push   $0x28
 804878b:	e9 90 ff ff ff       	jmp    8048720 <_init+0x2c>

08048790 <__stack_chk_fail@plt>:
 8048790:	ff 25 24 c0 04 08    	jmp    *0x804c024
 8048796:	68 30 00 00 00       	push   $0x30
 804879b:	e9 80 ff ff ff       	jmp    8048720 <_init+0x2c>

080487a0 <strcpy@plt>:
 80487a0:	ff 25 28 c0 04 08    	jmp    *0x804c028
 80487a6:	68 38 00 00 00       	push   $0x38
 80487ab:	e9 70 ff ff ff       	jmp    8048720 <_init+0x2c>

080487b0 <getenv@plt>:
 80487b0:	ff 25 2c c0 04 08    	jmp    *0x804c02c
 80487b6:	68 40 00 00 00       	push   $0x40
 80487bb:	e9 60 ff ff ff       	jmp    8048720 <_init+0x2c>

080487c0 <puts@plt>:
 80487c0:	ff 25 30 c0 04 08    	jmp    *0x804c030
 80487c6:	68 48 00 00 00       	push   $0x48
 80487cb:	e9 50 ff ff ff       	jmp    8048720 <_init+0x2c>

080487d0 <__memmove_chk@plt>:
 80487d0:	ff 25 34 c0 04 08    	jmp    *0x804c034
 80487d6:	68 50 00 00 00       	push   $0x50
 80487db:	e9 40 ff ff ff       	jmp    8048720 <_init+0x2c>

080487e0 <exit@plt>:
 80487e0:	ff 25 38 c0 04 08    	jmp    *0x804c038
 80487e6:	68 58 00 00 00       	push   $0x58
 80487eb:	e9 30 ff ff ff       	jmp    8048720 <_init+0x2c>

080487f0 <__libc_start_main@plt>:
 80487f0:	ff 25 3c c0 04 08    	jmp    *0x804c03c
 80487f6:	68 60 00 00 00       	push   $0x60
 80487fb:	e9 20 ff ff ff       	jmp    8048720 <_init+0x2c>

08048800 <write@plt>:
 8048800:	ff 25 40 c0 04 08    	jmp    *0x804c040
 8048806:	68 68 00 00 00       	push   $0x68
 804880b:	e9 10 ff ff ff       	jmp    8048720 <_init+0x2c>

08048810 <__isoc99_sscanf@plt>:
 8048810:	ff 25 44 c0 04 08    	jmp    *0x804c044
 8048816:	68 70 00 00 00       	push   $0x70
 804881b:	e9 00 ff ff ff       	jmp    8048720 <_init+0x2c>

08048820 <fopen@plt>:
 8048820:	ff 25 48 c0 04 08    	jmp    *0x804c048
 8048826:	68 78 00 00 00       	push   $0x78
 804882b:	e9 f0 fe ff ff       	jmp    8048720 <_init+0x2c>

08048830 <__errno_location@plt>:
 8048830:	ff 25 4c c0 04 08    	jmp    *0x804c04c
 8048836:	68 80 00 00 00       	push   $0x80
 804883b:	e9 e0 fe ff ff       	jmp    8048720 <_init+0x2c>

08048840 <__printf_chk@plt>:
 8048840:	ff 25 50 c0 04 08    	jmp    *0x804c050
 8048846:	68 88 00 00 00       	push   $0x88
 804884b:	e9 d0 fe ff ff       	jmp    8048720 <_init+0x2c>

08048850 <socket@plt>:
 8048850:	ff 25 54 c0 04 08    	jmp    *0x804c054
 8048856:	68 90 00 00 00       	push   $0x90
 804885b:	e9 c0 fe ff ff       	jmp    8048720 <_init+0x2c>

08048860 <__fprintf_chk@plt>:
 8048860:	ff 25 58 c0 04 08    	jmp    *0x804c058
 8048866:	68 98 00 00 00       	push   $0x98
 804886b:	e9 b0 fe ff ff       	jmp    8048720 <_init+0x2c>

08048870 <gethostbyname@plt>:
 8048870:	ff 25 5c c0 04 08    	jmp    *0x804c05c
 8048876:	68 a0 00 00 00       	push   $0xa0
 804887b:	e9 a0 fe ff ff       	jmp    8048720 <_init+0x2c>

08048880 <strtol@plt>:
 8048880:	ff 25 60 c0 04 08    	jmp    *0x804c060
 8048886:	68 a8 00 00 00       	push   $0xa8
 804888b:	e9 90 fe ff ff       	jmp    8048720 <_init+0x2c>

08048890 <connect@plt>:
 8048890:	ff 25 64 c0 04 08    	jmp    *0x804c064
 8048896:	68 b0 00 00 00       	push   $0xb0
 804889b:	e9 80 fe ff ff       	jmp    8048720 <_init+0x2c>

080488a0 <close@plt>:
 80488a0:	ff 25 68 c0 04 08    	jmp    *0x804c068
 80488a6:	68 b8 00 00 00       	push   $0xb8
 80488ab:	e9 70 fe ff ff       	jmp    8048720 <_init+0x2c>

080488b0 <__ctype_b_loc@plt>:
 80488b0:	ff 25 6c c0 04 08    	jmp    *0x804c06c
 80488b6:	68 c0 00 00 00       	push   $0xc0
 80488bb:	e9 60 fe ff ff       	jmp    8048720 <_init+0x2c>

080488c0 <__sprintf_chk@plt>:
 80488c0:	ff 25 70 c0 04 08    	jmp    *0x804c070
 80488c6:	68 c8 00 00 00       	push   $0xc8
 80488cb:	e9 50 fe ff ff       	jmp    8048720 <_init+0x2c>

Disassembly of section .plt.got:

080488d0 <.plt.got>:
 80488d0:	ff 25 fc bf 04 08    	jmp    *0x804bffc
 80488d6:	66 90                	xchg   %ax,%ax

Disassembly of section .text:

080488e0 <_start>:
 80488e0:	31 ed                	xor    %ebp,%ebp
 80488e2:	5e                   	pop    %esi
 80488e3:	89 e1                	mov    %esp,%ecx
 80488e5:	83 e4 f0             	and    $0xfffffff0,%esp
 80488e8:	50                   	push   %eax
 80488e9:	54                   	push   %esp
 80488ea:	52                   	push   %edx
 80488eb:	68 b0 9e 04 08       	push   $0x8049eb0
 80488f0:	68 50 9e 04 08       	push   $0x8049e50
 80488f5:	51                   	push   %ecx
 80488f6:	56                   	push   %esi
 80488f7:	68 db 89 04 08       	push   $0x80489db
 80488fc:	e8 ef fe ff ff       	call   80487f0 <__libc_start_main@plt>
 8048901:	f4                   	hlt    
 8048902:	66 90                	xchg   %ax,%ax
 8048904:	66 90                	xchg   %ax,%ax
 8048906:	66 90                	xchg   %ax,%ax
 8048908:	66 90                	xchg   %ax,%ax
 804890a:	66 90                	xchg   %ax,%ax
 804890c:	66 90                	xchg   %ax,%ax
 804890e:	66 90                	xchg   %ax,%ax

08048910 <__x86.get_pc_thunk.bx>:
 8048910:	8b 1c 24             	mov    (%esp),%ebx
 8048913:	c3                   	ret    
 8048914:	66 90                	xchg   %ax,%ax
 8048916:	66 90                	xchg   %ax,%ax
 8048918:	66 90                	xchg   %ax,%ax
 804891a:	66 90                	xchg   %ax,%ax
 804891c:	66 90                	xchg   %ax,%ax
 804891e:	66 90                	xchg   %ax,%ax

08048920 <deregister_tm_clones>:
 8048920:	b8 a3 c3 04 08       	mov    $0x804c3a3,%eax
 8048925:	2d a0 c3 04 08       	sub    $0x804c3a0,%eax
 804892a:	83 f8 06             	cmp    $0x6,%eax
 804892d:	76 1a                	jbe    8048949 <deregister_tm_clones+0x29>
 804892f:	b8 00 00 00 00       	mov    $0x0,%eax
 8048934:	85 c0                	test   %eax,%eax
 8048936:	74 11                	je     8048949 <deregister_tm_clones+0x29>
 8048938:	55                   	push   %ebp
 8048939:	89 e5                	mov    %esp,%ebp
 804893b:	83 ec 14             	sub    $0x14,%esp
 804893e:	68 a0 c3 04 08       	push   $0x804c3a0
 8048943:	ff d0                	call   *%eax
 8048945:	83 c4 10             	add    $0x10,%esp
 8048948:	c9                   	leave  
 8048949:	f3 c3                	repz ret 
 804894b:	90                   	nop
 804894c:	8d 74 26 00          	lea    0x0(%esi,%eiz,1),%esi

08048950 <register_tm_clones>:
 8048950:	b8 a0 c3 04 08       	mov    $0x804c3a0,%eax
 8048955:	2d a0 c3 04 08       	sub    $0x804c3a0,%eax
 804895a:	c1 f8 02             	sar    $0x2,%eax
 804895d:	89 c2                	mov    %eax,%edx
 804895f:	c1 ea 1f             	shr    $0x1f,%edx
 8048962:	01 d0                	add    %edx,%eax
 8048964:	d1 f8                	sar    %eax
 8048966:	74 1b                	je     8048983 <register_tm_clones+0x33>
 8048968:	ba 00 00 00 00       	mov    $0x0,%edx
 804896d:	85 d2                	test   %edx,%edx
 804896f:	74 12                	je     8048983 <register_tm_clones+0x33>
 8048971:	55                   	push   %ebp
 8048972:	89 e5                	mov    %esp,%ebp
 8048974:	83 ec 10             	sub    $0x10,%esp
 8048977:	50                   	push   %eax
 8048978:	68 a0 c3 04 08       	push   $0x804c3a0
 804897d:	ff d2                	call   *%edx
 804897f:	83 c4 10             	add    $0x10,%esp
 8048982:	c9                   	leave  
 8048983:	f3 c3                	repz ret 
 8048985:	8d 74 26 00          	lea    0x0(%esi,%eiz,1),%esi
 8048989:	8d bc 27 00 00 00 00 	lea    0x0(%edi,%eiz,1),%edi

08048990 <__do_global_dtors_aux>:
 8048990:	80 3d c8 c3 04 08 00 	cmpb   $0x0,0x804c3c8
 8048997:	75 13                	jne    80489ac <__do_global_dtors_aux+0x1c>
 8048999:	55                   	push   %ebp
 804899a:	89 e5                	mov    %esp,%ebp
 804899c:	83 ec 08             	sub    $0x8,%esp
 804899f:	e8 7c ff ff ff       	call   8048920 <deregister_tm_clones>
 80489a4:	c6 05 c8 c3 04 08 01 	movb   $0x1,0x804c3c8
 80489ab:	c9                   	leave  
 80489ac:	f3 c3                	repz ret 
 80489ae:	66 90                	xchg   %ax,%ax

080489b0 <frame_dummy>:
 80489b0:	b8 10 bf 04 08       	mov    $0x804bf10,%eax
 80489b5:	8b 10                	mov    (%eax),%edx
 80489b7:	85 d2                	test   %edx,%edx
 80489b9:	75 05                	jne    80489c0 <frame_dummy+0x10>
 80489bb:	eb 93                	jmp    8048950 <register_tm_clones>
 80489bd:	8d 76 00             	lea    0x0(%esi),%esi
 80489c0:	ba 00 00 00 00       	mov    $0x0,%edx
 80489c5:	85 d2                	test   %edx,%edx
 80489c7:	74 f2                	je     80489bb <frame_dummy+0xb>
 80489c9:	55                   	push   %ebp
 80489ca:	89 e5                	mov    %esp,%ebp
 80489cc:	83 ec 14             	sub    $0x14,%esp
 80489cf:	50                   	push   %eax
 80489d0:	ff d2                	call   *%edx
 80489d2:	83 c4 10             	add    $0x10,%esp
 80489d5:	c9                   	leave  
 80489d6:	e9 75 ff ff ff       	jmp    8048950 <register_tm_clones>

080489db <main>:
 80489db:	8d 4c 24 04          	lea    0x4(%esp),%ecx
 80489df:	83 e4 f0             	and    $0xfffffff0,%esp
 80489e2:	ff 71 fc             	pushl  -0x4(%ecx)
 80489e5:	55                   	push   %ebp
 80489e6:	89 e5                	mov    %esp,%ebp
 80489e8:	53                   	push   %ebx
 80489e9:	51                   	push   %ecx
 80489ea:	8b 01                	mov    (%ecx),%eax
 80489ec:	8b 59 04             	mov    0x4(%ecx),%ebx
 80489ef:	83 f8 01             	cmp    $0x1,%eax
 80489f2:	75 0c                	jne    8048a00 <main+0x25>
 80489f4:	a1 c0 c3 04 08       	mov    0x804c3c0,%eax
 80489f9:	a3 d0 c3 04 08       	mov    %eax,0x804c3d0
 80489fe:	eb 5b                	jmp    8048a5b <main+0x80>
 8048a00:	83 f8 02             	cmp    $0x2,%eax
 8048a03:	75 39                	jne    8048a3e <main+0x63>
 8048a05:	83 ec 08             	sub    $0x8,%esp
 8048a08:	68 d0 9e 04 08       	push   $0x8049ed0
 8048a0d:	ff 73 04             	pushl  0x4(%ebx)
 8048a10:	e8 0b fe ff ff       	call   8048820 <fopen@plt>
 8048a15:	a3 d0 c3 04 08       	mov    %eax,0x804c3d0
 8048a1a:	83 c4 10             	add    $0x10,%esp
 8048a1d:	85 c0                	test   %eax,%eax
 8048a1f:	75 3a                	jne    8048a5b <main+0x80>
 8048a21:	ff 73 04             	pushl  0x4(%ebx)
 8048a24:	ff 33                	pushl  (%ebx)
 8048a26:	68 d2 9e 04 08       	push   $0x8049ed2
 8048a2b:	6a 01                	push   $0x1
 8048a2d:	e8 0e fe ff ff       	call   8048840 <__printf_chk@plt>
 8048a32:	c7 04 24 08 00 00 00 	movl   $0x8,(%esp)
 8048a39:	e8 a2 fd ff ff       	call   80487e0 <exit@plt>
 8048a3e:	83 ec 04             	sub    $0x4,%esp
 8048a41:	ff 33                	pushl  (%ebx)
 8048a43:	68 ef 9e 04 08       	push   $0x8049eef
 8048a48:	6a 01                	push   $0x1
 8048a4a:	e8 f1 fd ff ff       	call   8048840 <__printf_chk@plt>
 8048a4f:	c7 04 24 08 00 00 00 	movl   $0x8,(%esp)
 8048a56:	e8 85 fd ff ff       	call   80487e0 <exit@plt>
 8048a5b:	e8 15 06 00 00       	call   8049075 <initialize_bomb>
 8048a60:	83 ec 0c             	sub    $0xc,%esp
 8048a63:	68 54 9f 04 08       	push   $0x8049f54
 8048a68:	e8 53 fd ff ff       	call   80487c0 <puts@plt>
 8048a6d:	c7 04 24 90 9f 04 08 	movl   $0x8049f90,(%esp)
 8048a74:	e8 47 fd ff ff       	call   80487c0 <puts@plt>
 8048a79:	e8 e9 06 00 00       	call   8049167 <read_line>
 8048a7e:	89 04 24             	mov    %eax,(%esp)
 8048a81:	e8 ad 00 00 00       	call   8048b33 <phase_1>
 8048a86:	e8 d5 07 00 00       	call   8049260 <phase_defused>
 8048a8b:	c7 04 24 bc 9f 04 08 	movl   $0x8049fbc,(%esp)
 8048a92:	e8 29 fd ff ff       	call   80487c0 <puts@plt>
 8048a97:	e8 cb 06 00 00       	call   8049167 <read_line>
 8048a9c:	89 04 24             	mov    %eax,(%esp)
 8048a9f:	e8 b0 00 00 00       	call   8048b54 <phase_2>
 8048aa4:	e8 b7 07 00 00       	call   8049260 <phase_defused>
 8048aa9:	c7 04 24 09 9f 04 08 	movl   $0x8049f09,(%esp)
 8048ab0:	e8 0b fd ff ff       	call   80487c0 <puts@plt>
 8048ab5:	e8 ad 06 00 00       	call   8049167 <read_line>
 8048aba:	89 04 24             	mov    %eax,(%esp)
 8048abd:	e8 fd 00 00 00       	call   8048bbf <phase_3>
 8048ac2:	e8 99 07 00 00       	call   8049260 <phase_defused>
 8048ac7:	c7 04 24 27 9f 04 08 	movl   $0x8049f27,(%esp)
 8048ace:	e8 ed fc ff ff       	call   80487c0 <puts@plt>
 8048ad3:	e8 8f 06 00 00       	call   8049167 <read_line>
 8048ad8:	89 04 24             	mov    %eax,(%esp)
 8048adb:	e8 10 02 00 00       	call   8048cf0 <phase_4>
 8048ae0:	e8 7b 07 00 00       	call   8049260 <phase_defused>
 8048ae5:	c7 04 24 e8 9f 04 08 	movl   $0x8049fe8,(%esp)
 8048aec:	e8 cf fc ff ff       	call   80487c0 <puts@plt>
 8048af1:	e8 71 06 00 00       	call   8049167 <read_line>
 8048af6:	89 04 24             	mov    %eax,(%esp)
 8048af9:	e8 67 02 00 00       	call   8048d65 <phase_5>
 8048afe:	e8 5d 07 00 00       	call   8049260 <phase_defused>
 8048b03:	c7 04 24 36 9f 04 08 	movl   $0x8049f36,(%esp)
 8048b0a:	e8 b1 fc ff ff       	call   80487c0 <puts@plt>
 8048b0f:	e8 53 06 00 00       	call   8049167 <read_line>
 8048b14:	89 04 24             	mov    %eax,(%esp)
 8048b17:	e8 c9 02 00 00       	call   8048de5 <phase_6>
 8048b1c:	e8 3f 07 00 00       	call   8049260 <phase_defused>
 8048b21:	83 c4 10             	add    $0x10,%esp
 8048b24:	b8 00 00 00 00       	mov    $0x0,%eax
 8048b29:	8d 65 f8             	lea    -0x8(%ebp),%esp
 8048b2c:	59                   	pop    %ecx
 8048b2d:	5b                   	pop    %ebx
 8048b2e:	5d                   	pop    %ebp
 8048b2f:	8d 61 fc             	lea    -0x4(%ecx),%esp
 8048b32:	c3                   	ret    

08048b33 <phase_1>:
 8048b33:	83 ec 14             	sub    $0x14,%esp
 8048b36:	68 0c a0 04 08       	push   $0x804a00c
 8048b3b:	ff 74 24 1c          	pushl  0x1c(%esp)
 8048b3f:	e8 cc 04 00 00       	call   8049010 <strings_not_equal>
 8048b44:	83 c4 10             	add    $0x10,%esp
 8048b47:	85 c0                	test   %eax,%eax
 8048b49:	74 05                	je     8048b50 <phase_1+0x1d>
 8048b4b:	e8 b7 05 00 00       	call   8049107 <explode_bomb>
 8048b50:	83 c4 0c             	add    $0xc,%esp
 8048b53:	c3                   	ret    

08048b54 <phase_2>:
 8048b54:	56                   	push   %esi
 8048b55:	53                   	push   %ebx
 8048b56:	83 ec 2c             	sub    $0x2c,%esp
 8048b59:	65 a1 14 00 00 00    	mov    %gs:0x14,%eax
 8048b5f:	89 44 24 24          	mov    %eax,0x24(%esp)
 8048b63:	31 c0                	xor    %eax,%eax
 8048b65:	8d 44 24 0c          	lea    0xc(%esp),%eax
 8048b69:	50                   	push   %eax
 8048b6a:	ff 74 24 3c          	pushl  0x3c(%esp)
 8048b6e:	e8 b9 05 00 00       	call   804912c <read_six_numbers>
 8048b73:	83 c4 10             	add    $0x10,%esp
 8048b76:	83 7c 24 04 00       	cmpl   $0x0,0x4(%esp)
 8048b7b:	75 07                	jne    8048b84 <phase_2+0x30>
 8048b7d:	83 7c 24 08 01       	cmpl   $0x1,0x8(%esp)
 8048b82:	74 05                	je     8048b89 <phase_2+0x35>
 8048b84:	e8 7e 05 00 00       	call   8049107 <explode_bomb>
 8048b89:	8d 5c 24 04          	lea    0x4(%esp),%ebx
 8048b8d:	8d 74 24 14          	lea    0x14(%esp),%esi
 8048b91:	8b 43 04             	mov    0x4(%ebx),%eax
 8048b94:	03 03                	add    (%ebx),%eax
 8048b96:	39 43 08             	cmp    %eax,0x8(%ebx)
 8048b99:	74 05                	je     8048ba0 <phase_2+0x4c>
 8048b9b:	e8 67 05 00 00       	call   8049107 <explode_bomb>
 8048ba0:	83 c3 04             	add    $0x4,%ebx
 8048ba3:	39 f3                	cmp    %esi,%ebx
 8048ba5:	75 ea                	jne    8048b91 <phase_2+0x3d>
 8048ba7:	8b 44 24 1c          	mov    0x1c(%esp),%eax
 8048bab:	65 33 05 14 00 00 00 	xor    %gs:0x14,%eax
 8048bb2:	74 05                	je     8048bb9 <phase_2+0x65>
 8048bb4:	e8 d7 fb ff ff       	call   8048790 <__stack_chk_fail@plt>
 8048bb9:	83 c4 24             	add    $0x24,%esp
 8048bbc:	5b                   	pop    %ebx
 8048bbd:	5e                   	pop    %esi
 8048bbe:	c3                   	ret    

08048bbf <phase_3>:
 8048bbf:	83 ec 1c             	sub    $0x1c,%esp
 8048bc2:	65 a1 14 00 00 00    	mov    %gs:0x14,%eax
 8048bc8:	89 44 24 0c          	mov    %eax,0xc(%esp)
 8048bcc:	31 c0                	xor    %eax,%eax
 8048bce:	8d 44 24 08          	lea    0x8(%esp),%eax
 8048bd2:	50                   	push   %eax
 8048bd3:	8d 44 24 08          	lea    0x8(%esp),%eax
 8048bd7:	50                   	push   %eax
 8048bd8:	68 af a1 04 08       	push   $0x804a1af
 8048bdd:	ff 74 24 2c          	pushl  0x2c(%esp)
 8048be1:	e8 2a fc ff ff       	call   8048810 <__isoc99_sscanf@plt>
 8048be6:	83 c4 10             	add    $0x10,%esp
 8048be9:	83 f8 01             	cmp    $0x1,%eax
 8048bec:	7f 05                	jg     8048bf3 <phase_3+0x34>
 8048bee:	e8 14 05 00 00       	call   8049107 <explode_bomb>
 8048bf3:	83 7c 24 04 07       	cmpl   $0x7,0x4(%esp)
 8048bf8:	77 66                	ja     8048c60 <phase_3+0xa1>
 8048bfa:	8b 44 24 04          	mov    0x4(%esp),%eax
 8048bfe:	ff 24 85 70 a0 04 08 	jmp    *0x804a070(,%eax,4)
 8048c05:	b8 a1 02 00 00       	mov    $0x2a1,%eax
 8048c0a:	eb 05                	jmp    8048c11 <phase_3+0x52>
 8048c0c:	b8 00 00 00 00       	mov    $0x0,%eax
 8048c11:	2d 82 00 00 00       	sub    $0x82,%eax
 8048c16:	eb 05                	jmp    8048c1d <phase_3+0x5e>
 8048c18:	b8 00 00 00 00       	mov    $0x0,%eax
 8048c1d:	05 60 02 00 00       	add    $0x260,%eax
 8048c22:	eb 05                	jmp    8048c29 <phase_3+0x6a>
 8048c24:	b8 00 00 00 00       	mov    $0x0,%eax
 8048c29:	2d c6 00 00 00       	sub    $0xc6,%eax
 8048c2e:	eb 05                	jmp    8048c35 <phase_3+0x76>
 8048c30:	b8 00 00 00 00       	mov    $0x0,%eax
 8048c35:	05 c6 00 00 00       	add    $0xc6,%eax
 8048c3a:	eb 05                	jmp    8048c41 <phase_3+0x82>
 8048c3c:	b8 00 00 00 00       	mov    $0x0,%eax
 8048c41:	2d c6 00 00 00       	sub    $0xc6,%eax
 8048c46:	eb 05                	jmp    8048c4d <phase_3+0x8e>
 8048c48:	b8 00 00 00 00       	mov    $0x0,%eax
 8048c4d:	05 c6 00 00 00       	add    $0xc6,%eax
 8048c52:	eb 05                	jmp    8048c59 <phase_3+0x9a>
 8048c54:	b8 00 00 00 00       	mov    $0x0,%eax
 8048c59:	2d c6 00 00 00       	sub    $0xc6,%eax
 8048c5e:	eb 0a                	jmp    8048c6a <phase_3+0xab>
 8048c60:	e8 a2 04 00 00       	call   8049107 <explode_bomb>
 8048c65:	b8 00 00 00 00       	mov    $0x0,%eax
 8048c6a:	83 7c 24 04 05       	cmpl   $0x5,0x4(%esp)
 8048c6f:	7f 06                	jg     8048c77 <phase_3+0xb8>
 8048c71:	3b 44 24 08          	cmp    0x8(%esp),%eax
 8048c75:	74 05                	je     8048c7c <phase_3+0xbd>
 8048c77:	e8 8b 04 00 00       	call   8049107 <explode_bomb>
 8048c7c:	8b 44 24 0c          	mov    0xc(%esp),%eax
 8048c80:	65 33 05 14 00 00 00 	xor    %gs:0x14,%eax
 8048c87:	74 05                	je     8048c8e <phase_3+0xcf>
 8048c89:	e8 02 fb ff ff       	call   8048790 <__stack_chk_fail@plt>
 8048c8e:	83 c4 1c             	add    $0x1c,%esp
 8048c91:	c3                   	ret    

08048c92 <func4>:
 8048c92:	56                   	push   %esi
 8048c93:	53                   	push   %ebx
 8048c94:	83 ec 04             	sub    $0x4,%esp
 8048c97:	8b 4c 24 10          	mov    0x10(%esp),%ecx
 8048c9b:	8b 5c 24 14          	mov    0x14(%esp),%ebx
 8048c9f:	8b 74 24 18          	mov    0x18(%esp),%esi
 8048ca3:	89 f0                	mov    %esi,%eax
 8048ca5:	29 d8                	sub    %ebx,%eax
 8048ca7:	89 c2                	mov    %eax,%edx
 8048ca9:	c1 ea 1f             	shr    $0x1f,%edx
 8048cac:	01 d0                	add    %edx,%eax
 8048cae:	d1 f8                	sar    %eax
 8048cb0:	8d 14 18             	lea    (%eax,%ebx,1),%edx
 8048cb3:	39 ca                	cmp    %ecx,%edx
 8048cb5:	7e 15                	jle    8048ccc <func4+0x3a>
 8048cb7:	83 ec 04             	sub    $0x4,%esp
 8048cba:	83 ea 01             	sub    $0x1,%edx
 8048cbd:	52                   	push   %edx
 8048cbe:	53                   	push   %ebx
 8048cbf:	51                   	push   %ecx
 8048cc0:	e8 cd ff ff ff       	call   8048c92 <func4>
 8048cc5:	83 c4 10             	add    $0x10,%esp
 8048cc8:	01 c0                	add    %eax,%eax
 8048cca:	eb 1e                	jmp    8048cea <func4+0x58>
 8048ccc:	b8 00 00 00 00       	mov    $0x0,%eax
 8048cd1:	39 ca                	cmp    %ecx,%edx
 8048cd3:	7d 15                	jge    8048cea <func4+0x58>
 8048cd5:	83 ec 04             	sub    $0x4,%esp
 8048cd8:	56                   	push   %esi
 8048cd9:	83 c2 01             	add    $0x1,%edx
 8048cdc:	52                   	push   %edx
 8048cdd:	51                   	push   %ecx
 8048cde:	e8 af ff ff ff       	call   8048c92 <func4>
 8048ce3:	83 c4 10             	add    $0x10,%esp
 8048ce6:	8d 44 00 01          	lea    0x1(%eax,%eax,1),%eax
 8048cea:	83 c4 04             	add    $0x4,%esp
 8048ced:	5b                   	pop    %ebx
 8048cee:	5e                   	pop    %esi
 8048cef:	c3                   	ret    

08048cf0 <phase_4>:
 8048cf0:	83 ec 1c             	sub    $0x1c,%esp
 8048cf3:	65 a1 14 00 00 00    	mov    %gs:0x14,%eax
 8048cf9:	89 44 24 0c          	mov    %eax,0xc(%esp)
 8048cfd:	31 c0                	xor    %eax,%eax
 8048cff:	8d 44 24 08          	lea    0x8(%esp),%eax
 8048d03:	50                   	push   %eax
 8048d04:	8d 44 24 08          	lea    0x8(%esp),%eax
 8048d08:	50                   	push   %eax
 8048d09:	68 af a1 04 08       	push   $0x804a1af
 8048d0e:	ff 74 24 2c          	pushl  0x2c(%esp)
 8048d12:	e8 f9 fa ff ff       	call   8048810 <__isoc99_sscanf@plt>
 8048d17:	83 c4 10             	add    $0x10,%esp
 8048d1a:	83 f8 02             	cmp    $0x2,%eax
 8048d1d:	75 07                	jne    8048d26 <phase_4+0x36>
 8048d1f:	83 7c 24 04 0e       	cmpl   $0xe,0x4(%esp)
 8048d24:	76 05                	jbe    8048d2b <phase_4+0x3b>
 8048d26:	e8 dc 03 00 00       	call   8049107 <explode_bomb>
 8048d2b:	83 ec 04             	sub    $0x4,%esp
 8048d2e:	6a 0e                	push   $0xe
 8048d30:	6a 00                	push   $0x0
 8048d32:	ff 74 24 10          	pushl  0x10(%esp)
 8048d36:	e8 57 ff ff ff       	call   8048c92 <func4>
 8048d3b:	83 c4 10             	add    $0x10,%esp
 8048d3e:	83 f8 02             	cmp    $0x2,%eax
 8048d41:	75 07                	jne    8048d4a <phase_4+0x5a>
 8048d43:	83 7c 24 08 02       	cmpl   $0x2,0x8(%esp)
 8048d48:	74 05                	je     8048d4f <phase_4+0x5f>
 8048d4a:	e8 b8 03 00 00       	call   8049107 <explode_bomb>
 8048d4f:	8b 44 24 0c          	mov    0xc(%esp),%eax
 8048d53:	65 33 05 14 00 00 00 	xor    %gs:0x14,%eax
 8048d5a:	74 05                	je     8048d61 <phase_4+0x71>
 8048d5c:	e8 2f fa ff ff       	call   8048790 <__stack_chk_fail@plt>
 8048d61:	83 c4 1c             	add    $0x1c,%esp
 8048d64:	c3                   	ret    

08048d65 <phase_5>:
 8048d65:	53                   	push   %ebx
 8048d66:	83 ec 24             	sub    $0x24,%esp
 8048d69:	8b 5c 24 2c          	mov    0x2c(%esp),%ebx
 8048d6d:	65 a1 14 00 00 00    	mov    %gs:0x14,%eax
 8048d73:	89 44 24 18          	mov    %eax,0x18(%esp)
 8048d77:	31 c0                	xor    %eax,%eax
 8048d79:	53                   	push   %ebx
 8048d7a:	e8 72 02 00 00       	call   8048ff1 <string_length>
 8048d7f:	83 c4 10             	add    $0x10,%esp
 8048d82:	83 f8 06             	cmp    $0x6,%eax
 8048d85:	74 05                	je     8048d8c <phase_5+0x27>
 8048d87:	e8 7b 03 00 00       	call   8049107 <explode_bomb>
 8048d8c:	b8 00 00 00 00       	mov    $0x0,%eax/
 8048d91:	0f b6 14 03          	movzbl (%ebx,%eax,1),%edx//before
 8048d95:	83 e2 0f             	and    $0xf,%edx
 8048d98:	0f b6 92 90 a0 04 08 	movzbl 0x804a090(%edx),%edx//after
 8048d9f:	88 54 04 05          	mov    %dl,0x5(%esp,%eax,1)
 8048da3:	83 c0 01             	add    $0x1,%eax
 8048da6:	83 f8 06             	cmp    $0x6,%eax
 8048da9:	75 e6                	jne    8048d91 <phase_5+0x2c>/
 8048dab:	c6 44 24 0b 00       	movb   $0x0,0xb(%esp)
 8048db0:	83 ec 08             	sub    $0x8,%esp
 8048db3:	68 66 a0 04 08       	push   $0x804a066
 8048db8:	8d 44 24 11          	lea    0x11(%esp),%eax
 8048dbc:	50                   	push   %eax
 8048dbd:	e8 4e 02 00 00       	call   8049010 <strings_not_equal>
 8048dc2:	83 c4 10             	add    $0x10,%esp
 8048dc5:	85 c0                	test   %eax,%eax
 8048dc7:	74 05                	je     8048dce <phase_5+0x69>
 8048dc9:	e8 39 03 00 00       	call   8049107 <explode_bomb>
 8048dce:	8b 44 24 0c          	mov    0xc(%esp),%eax
 8048dd2:	65 33 05 14 00 00 00 	xor    %gs:0x14,%eax
 8048dd9:	74 05                	je     8048de0 <phase_5+0x7b>
 8048ddb:	e8 b0 f9 ff ff       	call   8048790 <__stack_chk_fail@plt>
 8048de0:	83 c4 18             	add    $0x18,%esp
 8048de3:	5b                   	pop    %ebx
 8048de4:	c3                   	ret    

08048de5 <phase_6>:
 8048de5:	56                   	push   %esi
 8048de6:	53                   	push   %ebx
 8048de7:	83 ec 4c             	sub    $0x4c,%esp
 8048dea:	65 a1 14 00 00 00    	mov    %gs:0x14,%eax
 8048df0:	89 44 24 44          	mov    %eax,0x44(%esp)
 8048df4:	31 c0                	xor    %eax,%eax
 8048df6:	8d 44 24 14          	lea    0x14(%esp),%eax
 8048dfa:	50                   	push   %eax
 8048dfb:	ff 74 24 5c          	pushl  0x5c(%esp)
 8048dff:	e8 28 03 00 00       	call   804912c <read_six_numbers>
 8048e04:	83 c4 10             	add    $0x10,%esp
 8048e07:	be 00 00 00 00       	mov    $0x0,%esi
 8048e0c:	8b 44 b4 0c          	mov    0xc(%esp,%esi,4),%eax//first
 8048e10:	83 e8 01             	sub    $0x1,%eax
 8048e13:	83 f8 05             	cmp    $0x5,%eax
 8048e16:	76 05                	jbe    8048e1d <phase_6+0x38>
 8048e18:	e8 ea 02 00 00       	call   8049107 <explode_bomb>
 8048e1d:	83 c6 01             	add    $0x1,%esi
 8048e20:	83 fe 06             	cmp    $0x6,%esi
 8048e23:	74 33                	je     8048e58 <phase_6+0x73>
 8048e25:	89 f3                	mov    %esi,%ebx
 8048e27:	8b 44 9c 0c          	mov    0xc(%esp,%ebx,4),%eax
 8048e2b:	39 44 b4 08          	cmp    %eax,0x8(%esp,%esi,4)
 8048e2f:	75 05                	jne    8048e36 <phase_6+0x51>
 8048e31:	e8 d1 02 00 00       	call   8049107 <explode_bomb>
 8048e36:	83 c3 01             	add    $0x1,%ebx
 8048e39:	83 fb 05             	cmp    $0x5,%ebx
 8048e3c:	7e e9                	jle    8048e27 <phase_6+0x42>
 8048e3e:	eb cc                	jmp    8048e0c <phase_6+0x27>
 8048e40:	8b 52 08             	mov    0x8(%edx),%edx
 8048e43:	83 c0 01             	add    $0x1,%eax
 8048e46:	39 c8                	cmp    %ecx,%eax
 8048e48:	75 f6                	jne    8048e40 <phase_6+0x5b>
 8048e4a:	89 54 b4 24          	mov    %edx,0x24(%esp,%esi,4)
 8048e4e:	83 c3 01             	add    $0x1,%ebx
 8048e51:	83 fb 06             	cmp    $0x6,%ebx
 8048e54:	75 07                	jne    8048e5d <phase_6+0x78>
 8048e56:	eb 1c                	jmp    8048e74 <phase_6+0x8f>
 8048e58:	bb 00 00 00 00       	mov    $0x0,%ebx
 8048e5d:	89 de                	mov    %ebx,%esi
 8048e5f:	8b 4c 9c 0c          	mov    0xc(%esp,%ebx,4),%ecx
 8048e63:	b8 01 00 00 00       	mov    $0x1,%eax
 8048e68:	ba 3c c1 04 08       	mov    $0x804c13c,%edx
 8048e6d:	83 f9 01             	cmp    $0x1,%ecx
 8048e70:	7f ce                	jg     8048e40 <phase_6+0x5b>
 8048e72:	eb d6                	jmp    8048e4a <phase_6+0x65>
 8048e74:	8b 5c 24 24          	mov    0x24(%esp),%ebx
 8048e78:	8d 44 24 24          	lea    0x24(%esp),%eax
 8048e7c:	8d 74 24 38          	lea    0x38(%esp),%esi
 8048e80:	89 d9                	mov    %ebx,%ecx
 8048e82:	8b 50 04             	mov    0x4(%eax),%edx
 8048e85:	89 51 08             	mov    %edx,0x8(%ecx)
 8048e88:	83 c0 04             	add    $0x4,%eax
 8048e8b:	89 d1                	mov    %edx,%ecx
 8048e8d:	39 f0                	cmp    %esi,%eax
 8048e8f:	75 f1                	jne    8048e82 <phase_6+0x9d>
 8048e91:	c7 42 08 00 00 00 00 	movl   $0x0,0x8(%edx)
 8048e98:	be 05 00 00 00       	mov    $0x5,%esi
 8048e9d:	8b 43 08             	mov    0x8(%ebx),%eax
 8048ea0:	8b 00                	mov    (%eax),%eax
 8048ea2:	39 03                	cmp    %eax,(%ebx)
 8048ea4:	7e 05                	jle    8048eab <phase_6+0xc6>
 8048ea6:	e8 5c 02 00 00       	call   8049107 <explode_bomb>
 8048eab:	8b 5b 08             	mov    0x8(%ebx),%ebx
 8048eae:	83 ee 01             	sub    $0x1,%esi
 8048eb1:	75 ea                	jne    8048e9d <phase_6+0xb8>
 8048eb3:	8b 44 24 3c          	mov    0x3c(%esp),%eax
 8048eb7:	65 33 05 14 00 00 00 	xor    %gs:0x14,%eax
 8048ebe:	74 05                	je     8048ec5 <phase_6+0xe0>
 8048ec0:	e8 cb f8 ff ff       	call   8048790 <__stack_chk_fail@plt>
 8048ec5:	83 c4 44             	add    $0x44,%esp
 8048ec8:	5b                   	pop    %ebx
 8048ec9:	5e                   	pop    %esi
 8048eca:	c3                   	ret    

08048ecb <fun7>:
 8048ecb:	53                   	push   %ebx
 8048ecc:	83 ec 08             	sub    $0x8,%esp
 8048ecf:	8b 54 24 10          	mov    0x10(%esp),%edx
 8048ed3:	8b 4c 24 14          	mov    0x14(%esp),%ecx
 8048ed7:	85 d2                	test   %edx,%edx
 8048ed9:	74 37                	je     8048f12 <fun7+0x47>
 8048edb:	8b 1a                	mov    (%edx),%ebx
 8048edd:	39 cb                	cmp    %ecx,%ebx
 8048edf:	7e 13                	jle    8048ef4 <fun7+0x29>
 8048ee1:	83 ec 08             	sub    $0x8,%esp
 8048ee4:	51                   	push   %ecx
 8048ee5:	ff 72 04             	pushl  0x4(%edx)
 8048ee8:	e8 de ff ff ff       	call   8048ecb <fun7>
 8048eed:	83 c4 10             	add    $0x10,%esp
 8048ef0:	01 c0                	add    %eax,%eax
 8048ef2:	eb 23                	jmp    8048f17 <fun7+0x4c>
 8048ef4:	b8 00 00 00 00       	mov    $0x0,%eax
 8048ef9:	39 cb                	cmp    %ecx,%ebx
 8048efb:	74 1a                	je     8048f17 <fun7+0x4c>
 8048efd:	83 ec 08             	sub    $0x8,%esp
 8048f00:	51                   	push   %ecx
 8048f01:	ff 72 08             	pushl  0x8(%edx)
 8048f04:	e8 c2 ff ff ff       	call   8048ecb <fun7>
 8048f09:	83 c4 10             	add    $0x10,%esp
 8048f0c:	8d 44 00 01          	lea    0x1(%eax,%eax,1),%eax
 8048f10:	eb 05                	jmp    8048f17 <fun7+0x4c>
 8048f12:	b8 ff ff ff ff       	mov    $0xffffffff,%eax
 8048f17:	83 c4 08             	add    $0x8,%esp
 8048f1a:	5b                   	pop    %ebx
 8048f1b:	c3                   	ret    

08048f1c <secret_phase>:
 8048f1c:	53                   	push   %ebx
 8048f1d:	83 ec 08             	sub    $0x8,%esp
 8048f20:	e8 42 02 00 00       	call   8049167 <read_line>
 8048f25:	83 ec 04             	sub    $0x4,%esp
 8048f28:	6a 0a                	push   $0xa
 8048f2a:	6a 00                	push   $0x0
 8048f2c:	50                   	push   %eax
 8048f2d:	e8 4e f9 ff ff       	call   8048880 <strtol@plt>
 8048f32:	89 c3                	mov    %eax,%ebx
 8048f34:	8d 40 ff             	lea    -0x1(%eax),%eax
 8048f37:	83 c4 10             	add    $0x10,%esp
 8048f3a:	3d e8 03 00 00       	cmp    $0x3e8,%eax
 8048f3f:	76 05                	jbe    8048f46 <secret_phase+0x2a>
 8048f41:	e8 c1 01 00 00       	call   8049107 <explode_bomb>
 8048f46:	83 ec 08             	sub    $0x8,%esp
 8048f49:	53                   	push   %ebx
 8048f4a:	68 88 c0 04 08       	push   $0x804c088
 8048f4f:	e8 77 ff ff ff       	call   8048ecb <fun7>
 8048f54:	83 c4 10             	add    $0x10,%esp
 8048f57:	83 f8 01             	cmp    $0x1,%eax
 8048f5a:	74 05                	je     8048f61 <secret_phase+0x45>
 8048f5c:	e8 a6 01 00 00       	call   8049107 <explode_bomb>
 8048f61:	83 ec 0c             	sub    $0xc,%esp
 8048f64:	68 40 a0 04 08       	push   $0x804a040
 8048f69:	e8 52 f8 ff ff       	call   80487c0 <puts@plt>
 8048f6e:	e8 ed 02 00 00       	call   8049260 <phase_defused>
 8048f73:	83 c4 18             	add    $0x18,%esp
 8048f76:	5b                   	pop    %ebx
 8048f77:	c3                   	ret    

08048f78 <sig_handler>:
 8048f78:	83 ec 18             	sub    $0x18,%esp
 8048f7b:	68 a0 a0 04 08       	push   $0x804a0a0
 8048f80:	e8 3b f8 ff ff       	call   80487c0 <puts@plt>
 8048f85:	c7 04 24 03 00 00 00 	movl   $0x3,(%esp)
 8048f8c:	e8 df f7 ff ff       	call   8048770 <sleep@plt>
 8048f91:	83 c4 08             	add    $0x8,%esp
 8048f94:	68 62 a1 04 08       	push   $0x804a162
 8048f99:	6a 01                	push   $0x1
 8048f9b:	e8 a0 f8 ff ff       	call   8048840 <__printf_chk@plt>
 8048fa0:	83 c4 04             	add    $0x4,%esp
 8048fa3:	ff 35 c4 c3 04 08    	pushl  0x804c3c4
 8048fa9:	e8 92 f7 ff ff       	call   8048740 <fflush@plt>
 8048fae:	c7 04 24 01 00 00 00 	movl   $0x1,(%esp)
 8048fb5:	e8 b6 f7 ff ff       	call   8048770 <sleep@plt>
 8048fba:	c7 04 24 6a a1 04 08 	movl   $0x804a16a,(%esp)
 8048fc1:	e8 fa f7 ff ff       	call   80487c0 <puts@plt>
 8048fc6:	c7 04 24 10 00 00 00 	movl   $0x10,(%esp)
 8048fcd:	e8 0e f8 ff ff       	call   80487e0 <exit@plt>

08048fd2 <invalid_phase>:
 8048fd2:	83 ec 10             	sub    $0x10,%esp
 8048fd5:	ff 74 24 14          	pushl  0x14(%esp)
 8048fd9:	68 72 a1 04 08       	push   $0x804a172
 8048fde:	6a 01                	push   $0x1
 8048fe0:	e8 5b f8 ff ff       	call   8048840 <__printf_chk@plt>
 8048fe5:	c7 04 24 08 00 00 00 	movl   $0x8,(%esp)
 8048fec:	e8 ef f7 ff ff       	call   80487e0 <exit@plt>

08048ff1 <string_length>:
 8048ff1:	8b 54 24 04          	mov    0x4(%esp),%edx
 8048ff5:	80 3a 00             	cmpb   $0x0,(%edx)
 8048ff8:	74 10                	je     804900a <string_length+0x19>
 8048ffa:	b8 00 00 00 00       	mov    $0x0,%eax
 8048fff:	83 c0 01             	add    $0x1,%eax
 8049002:	80 3c 02 00          	cmpb   $0x0,(%edx,%eax,1)
 8049006:	75 f7                	jne    8048fff <string_length+0xe>
 8049008:	f3 c3                	repz ret 
 804900a:	b8 00 00 00 00       	mov    $0x0,%eax
 804900f:	c3                   	ret    

08049010 <strings_not_equal>:
 8049010:	57                   	push   %edi
 8049011:	56                   	push   %esi
 8049012:	53                   	push   %ebx
 8049013:	8b 5c 24 10          	mov    0x10(%esp),%ebx
 8049017:	8b 74 24 14          	mov    0x14(%esp),%esi
 804901b:	53                   	push   %ebx
 804901c:	e8 d0 ff ff ff       	call   8048ff1 <string_length>
 8049021:	89 c7                	mov    %eax,%edi
 8049023:	89 34 24             	mov    %esi,(%esp)
 8049026:	e8 c6 ff ff ff       	call   8048ff1 <string_length>
 804902b:	83 c4 04             	add    $0x4,%esp
 804902e:	ba 01 00 00 00       	mov    $0x1,%edx
 8049033:	39 c7                	cmp    %eax,%edi
 8049035:	75 38                	jne    804906f <strings_not_equal+0x5f>
 8049037:	0f b6 03             	movzbl (%ebx),%eax
 804903a:	84 c0                	test   %al,%al
 804903c:	74 1e                	je     804905c <strings_not_equal+0x4c>
 804903e:	3a 06                	cmp    (%esi),%al
 8049040:	74 06                	je     8049048 <strings_not_equal+0x38>
 8049042:	eb 1f                	jmp    8049063 <strings_not_equal+0x53>
 8049044:	3a 06                	cmp    (%esi),%al
 8049046:	75 22                	jne    804906a <strings_not_equal+0x5a>
 8049048:	83 c3 01             	add    $0x1,%ebx
 804904b:	83 c6 01             	add    $0x1,%esi
 804904e:	0f b6 03             	movzbl (%ebx),%eax
 8049051:	84 c0                	test   %al,%al
 8049053:	75 ef                	jne    8049044 <strings_not_equal+0x34>
 8049055:	ba 00 00 00 00       	mov    $0x0,%edx
 804905a:	eb 13                	jmp    804906f <strings_not_equal+0x5f>
 804905c:	ba 00 00 00 00       	mov    $0x0,%edx
 8049061:	eb 0c                	jmp    804906f <strings_not_equal+0x5f>
 8049063:	ba 01 00 00 00       	mov    $0x1,%edx
 8049068:	eb 05                	jmp    804906f <strings_not_equal+0x5f>
 804906a:	ba 01 00 00 00       	mov    $0x1,%edx
 804906f:	89 d0                	mov    %edx,%eax
 8049071:	5b                   	pop    %ebx
 8049072:	5e                   	pop    %esi
 8049073:	5f                   	pop    %edi
 8049074:	c3                   	ret    

08049075 <initialize_bomb>:
 8049075:	83 ec 14             	sub    $0x14,%esp
 8049078:	68 78 8f 04 08       	push   $0x8048f78
 804907d:	6a 02                	push   $0x2
 804907f:	e8 dc f6 ff ff       	call   8048760 <signal@plt>
 8049084:	83 c4 1c             	add    $0x1c,%esp
 8049087:	c3                   	ret    

08049088 <initialize_bomb_solve>:
 8049088:	f3 c3                	repz ret 

0804908a <blank_line>:
 804908a:	56                   	push   %esi
 804908b:	53                   	push   %ebx
 804908c:	83 ec 04             	sub    $0x4,%esp
 804908f:	8b 74 24 10          	mov    0x10(%esp),%esi
 8049093:	eb 14                	jmp    80490a9 <blank_line+0x1f>
 8049095:	e8 16 f8 ff ff       	call   80488b0 <__ctype_b_loc@plt>
 804909a:	83 c6 01             	add    $0x1,%esi
 804909d:	0f be db             	movsbl %bl,%ebx
 80490a0:	8b 00                	mov    (%eax),%eax
 80490a2:	f6 44 58 01 20       	testb  $0x20,0x1(%eax,%ebx,2)
 80490a7:	74 0e                	je     80490b7 <blank_line+0x2d>
 80490a9:	0f b6 1e             	movzbl (%esi),%ebx
 80490ac:	84 db                	test   %bl,%bl
 80490ae:	75 e5                	jne    8049095 <blank_line+0xb>
 80490b0:	b8 01 00 00 00       	mov    $0x1,%eax
 80490b5:	eb 05                	jmp    80490bc <blank_line+0x32>
 80490b7:	b8 00 00 00 00       	mov    $0x0,%eax
 80490bc:	83 c4 04             	add    $0x4,%esp
 80490bf:	5b                   	pop    %ebx
 80490c0:	5e                   	pop    %esi
 80490c1:	c3                   	ret    

080490c2 <skip>:
 80490c2:	53                   	push   %ebx
 80490c3:	83 ec 08             	sub    $0x8,%esp
 80490c6:	83 ec 04             	sub    $0x4,%esp
 80490c9:	ff 35 d0 c3 04 08    	pushl  0x804c3d0
 80490cf:	6a 50                	push   $0x50
 80490d1:	a1 cc c3 04 08       	mov    0x804c3cc,%eax
 80490d6:	8d 04 80             	lea    (%eax,%eax,4),%eax
 80490d9:	c1 e0 04             	shl    $0x4,%eax
 80490dc:	05 e0 c3 04 08       	add    $0x804c3e0,%eax
 80490e1:	50                   	push   %eax
 80490e2:	e8 69 f6 ff ff       	call   8048750 <fgets@plt>
 80490e7:	89 c3                	mov    %eax,%ebx
 80490e9:	83 c4 10             	add    $0x10,%esp
 80490ec:	85 c0                	test   %eax,%eax
 80490ee:	74 10                	je     8049100 <skip+0x3e>
 80490f0:	83 ec 0c             	sub    $0xc,%esp
 80490f3:	50                   	push   %eax
 80490f4:	e8 91 ff ff ff       	call   804908a <blank_line>
 80490f9:	83 c4 10             	add    $0x10,%esp
 80490fc:	85 c0                	test   %eax,%eax
 80490fe:	75 c6                	jne    80490c6 <skip+0x4>
 8049100:	89 d8                	mov    %ebx,%eax
 8049102:	83 c4 08             	add    $0x8,%esp
 8049105:	5b                   	pop    %ebx
 8049106:	c3                   	ret    

08049107 <explode_bomb>:
 8049107:	83 ec 18             	sub    $0x18,%esp
 804910a:	68 83 a1 04 08       	push   $0x804a183
 804910f:	e8 ac f6 ff ff       	call   80487c0 <puts@plt>
 8049114:	c7 04 24 8c a1 04 08 	movl   $0x804a18c,(%esp)
 804911b:	e8 a0 f6 ff ff       	call   80487c0 <puts@plt>
 8049120:	c7 04 24 08 00 00 00 	movl   $0x8,(%esp)
 8049127:	e8 b4 f6 ff ff       	call   80487e0 <exit@plt>

0804912c <read_six_numbers>:
 804912c:	83 ec 0c             	sub    $0xc,%esp
 804912f:	8b 44 24 14          	mov    0x14(%esp),%eax
 8049133:	8d 50 14             	lea    0x14(%eax),%edx
 8049136:	52                   	push   %edx
 8049137:	8d 50 10             	lea    0x10(%eax),%edx
 804913a:	52                   	push   %edx
 804913b:	8d 50 0c             	lea    0xc(%eax),%edx
 804913e:	52                   	push   %edx
 804913f:	8d 50 08             	lea    0x8(%eax),%edx
 8049142:	52                   	push   %edx
 8049143:	8d 50 04             	lea    0x4(%eax),%edx
 8049146:	52                   	push   %edx
 8049147:	50                   	push   %eax
 8049148:	68 a3 a1 04 08       	push   $0x804a1a3
 804914d:	ff 74 24 2c          	pushl  0x2c(%esp)
 8049151:	e8 ba f6 ff ff       	call   8048810 <__isoc99_sscanf@plt>
 8049156:	83 c4 20             	add    $0x20,%esp
 8049159:	83 f8 05             	cmp    $0x5,%eax
 804915c:	7f 05                	jg     8049163 <read_six_numbers+0x37>
 804915e:	e8 a4 ff ff ff       	call   8049107 <explode_bomb>
 8049163:	83 c4 0c             	add    $0xc,%esp
 8049166:	c3                   	ret    

08049167 <read_line>:
 8049167:	57                   	push   %edi
 8049168:	56                   	push   %esi
 8049169:	53                   	push   %ebx
 804916a:	e8 53 ff ff ff       	call   80490c2 <skip>
 804916f:	85 c0                	test   %eax,%eax
 8049171:	75 70                	jne    80491e3 <read_line+0x7c>
 8049173:	a1 c0 c3 04 08       	mov    0x804c3c0,%eax
 8049178:	39 05 d0 c3 04 08    	cmp    %eax,0x804c3d0
 804917e:	75 19                	jne    8049199 <read_line+0x32>
 8049180:	83 ec 0c             	sub    $0xc,%esp
 8049183:	68 b5 a1 04 08       	push   $0x804a1b5
 8049188:	e8 33 f6 ff ff       	call   80487c0 <puts@plt>
 804918d:	c7 04 24 08 00 00 00 	movl   $0x8,(%esp)
 8049194:	e8 47 f6 ff ff       	call   80487e0 <exit@plt>
 8049199:	83 ec 0c             	sub    $0xc,%esp
 804919c:	68 d3 a1 04 08       	push   $0x804a1d3
 80491a1:	e8 0a f6 ff ff       	call   80487b0 <getenv@plt>
 80491a6:	83 c4 10             	add    $0x10,%esp
 80491a9:	85 c0                	test   %eax,%eax
 80491ab:	74 0a                	je     80491b7 <read_line+0x50>
 80491ad:	83 ec 0c             	sub    $0xc,%esp
 80491b0:	6a 00                	push   $0x0
 80491b2:	e8 29 f6 ff ff       	call   80487e0 <exit@plt>
 80491b7:	a1 c0 c3 04 08       	mov    0x804c3c0,%eax
 80491bc:	a3 d0 c3 04 08       	mov    %eax,0x804c3d0
 80491c1:	e8 fc fe ff ff       	call   80490c2 <skip>
 80491c6:	85 c0                	test   %eax,%eax
 80491c8:	75 19                	jne    80491e3 <read_line+0x7c>
 80491ca:	83 ec 0c             	sub    $0xc,%esp
 80491cd:	68 b5 a1 04 08       	push   $0x804a1b5
 80491d2:	e8 e9 f5 ff ff       	call   80487c0 <puts@plt>
 80491d7:	c7 04 24 00 00 00 00 	movl   $0x0,(%esp)
 80491de:	e8 fd f5 ff ff       	call   80487e0 <exit@plt>
 80491e3:	8b 15 cc c3 04 08    	mov    0x804c3cc,%edx
 80491e9:	8d 1c 92             	lea    (%edx,%edx,4),%ebx
 80491ec:	c1 e3 04             	shl    $0x4,%ebx
 80491ef:	81 c3 e0 c3 04 08    	add    $0x804c3e0,%ebx
 80491f5:	b8 00 00 00 00       	mov    $0x0,%eax
 80491fa:	b9 ff ff ff ff       	mov    $0xffffffff,%ecx
 80491ff:	89 df                	mov    %ebx,%edi
 8049201:	f2 ae                	repnz scas %es:(%edi),%al
 8049203:	f7 d1                	not    %ecx
 8049205:	83 e9 01             	sub    $0x1,%ecx
 8049208:	83 f9 4e             	cmp    $0x4e,%ecx
 804920b:	7e 36                	jle    8049243 <read_line+0xdc>
 804920d:	83 ec 0c             	sub    $0xc,%esp
 8049210:	68 de a1 04 08       	push   $0x804a1de
 8049215:	e8 a6 f5 ff ff       	call   80487c0 <puts@plt>
 804921a:	a1 cc c3 04 08       	mov    0x804c3cc,%eax
 804921f:	8d 50 01             	lea    0x1(%eax),%edx
 8049222:	89 15 cc c3 04 08    	mov    %edx,0x804c3cc
 8049228:	6b c0 50             	imul   $0x50,%eax,%eax
 804922b:	05 e0 c3 04 08       	add    $0x804c3e0,%eax
 8049230:	be f9 a1 04 08       	mov    $0x804a1f9,%esi
 8049235:	b9 04 00 00 00       	mov    $0x4,%ecx
 804923a:	89 c7                	mov    %eax,%edi
 804923c:	f3 a5                	rep movsl %ds:(%esi),%es:(%edi)
 804923e:	e8 c4 fe ff ff       	call   8049107 <explode_bomb>
 8049243:	8d 04 92             	lea    (%edx,%edx,4),%eax
 8049246:	c1 e0 04             	shl    $0x4,%eax
 8049249:	c6 84 01 df c3 04 08 	movb   $0x0,0x804c3df(%ecx,%eax,1)
 8049250:	00 
 8049251:	83 c2 01             	add    $0x1,%edx
 8049254:	89 15 cc c3 04 08    	mov    %edx,0x804c3cc
 804925a:	89 d8                	mov    %ebx,%eax
 804925c:	5b                   	pop    %ebx
 804925d:	5e                   	pop    %esi
 804925e:	5f                   	pop    %edi
 804925f:	c3                   	ret    

08049260 <phase_defused>:
 8049260:	83 ec 6c             	sub    $0x6c,%esp
 8049263:	65 a1 14 00 00 00    	mov    %gs:0x14,%eax
 8049269:	89 44 24 5c          	mov    %eax,0x5c(%esp)
 804926d:	31 c0                	xor    %eax,%eax
 804926f:	83 3d cc c3 04 08 06 	cmpl   $0x6,0x804c3cc
 8049276:	75 73                	jne    80492eb <phase_defused+0x8b>
 8049278:	83 ec 0c             	sub    $0xc,%esp
 804927b:	8d 44 24 18          	lea    0x18(%esp),%eax
 804927f:	50                   	push   %eax
 8049280:	8d 44 24 18          	lea    0x18(%esp),%eax
 8049284:	50                   	push   %eax
 8049285:	8d 44 24 18          	lea    0x18(%esp),%eax
 8049289:	50                   	push   %eax
 804928a:	68 09 a2 04 08       	push   $0x804a209
 804928f:	68 d0 c4 04 08       	push   $0x804c4d0
 8049294:	e8 77 f5 ff ff       	call   8048810 <__isoc99_sscanf@plt>
 8049299:	83 c4 20             	add    $0x20,%esp
 804929c:	83 f8 03             	cmp    $0x3,%eax
 804929f:	75 3a                	jne    80492db <phase_defused+0x7b>
 80492a1:	83 ec 08             	sub    $0x8,%esp
 80492a4:	68 12 a2 04 08       	push   $0x804a212
 80492a9:	8d 44 24 18          	lea    0x18(%esp),%eax
 80492ad:	50                   	push   %eax
 80492ae:	e8 5d fd ff ff       	call   8049010 <strings_not_equal>
 80492b3:	83 c4 10             	add    $0x10,%esp
 80492b6:	85 c0                	test   %eax,%eax
 80492b8:	75 21                	jne    80492db <phase_defused+0x7b>
 80492ba:	83 ec 0c             	sub    $0xc,%esp
 80492bd:	68 d8 a0 04 08       	push   $0x804a0d8
 80492c2:	e8 f9 f4 ff ff       	call   80487c0 <puts@plt>
 80492c7:	c7 04 24 00 a1 04 08 	movl   $0x804a100,(%esp)
 80492ce:	e8 ed f4 ff ff       	call   80487c0 <puts@plt>
 80492d3:	e8 44 fc ff ff       	call   8048f1c <secret_phase>
 80492d8:	83 c4 10             	add    $0x10,%esp
 80492db:	83 ec 0c             	sub    $0xc,%esp
 80492de:	68 38 a1 04 08       	push   $0x804a138
 80492e3:	e8 d8 f4 ff ff       	call   80487c0 <puts@plt>
 80492e8:	83 c4 10             	add    $0x10,%esp
 80492eb:	8b 44 24 5c          	mov    0x5c(%esp),%eax
 80492ef:	65 33 05 14 00 00 00 	xor    %gs:0x14,%eax
 80492f6:	74 05                	je     80492fd <phase_defused+0x9d>
 80492f8:	e8 93 f4 ff ff       	call   8048790 <__stack_chk_fail@plt>
 80492fd:	83 c4 6c             	add    $0x6c,%esp
 8049300:	c3                   	ret    

08049301 <sigalrm_handler>:
 8049301:	83 ec 0c             	sub    $0xc,%esp
 8049304:	6a 00                	push   $0x0
 8049306:	68 68 a2 04 08       	push   $0x804a268
 804930b:	6a 01                	push   $0x1
 804930d:	ff 35 a0 c3 04 08    	pushl  0x804c3a0
 8049313:	e8 48 f5 ff ff       	call   8048860 <__fprintf_chk@plt>
 8049318:	c7 04 24 01 00 00 00 	movl   $0x1,(%esp)
 804931f:	e8 bc f4 ff ff       	call   80487e0 <exit@plt>

08049324 <rio_readlineb>:
 8049324:	55                   	push   %ebp
 8049325:	57                   	push   %edi
 8049326:	56                   	push   %esi
 8049327:	53                   	push   %ebx
 8049328:	83 ec 2c             	sub    $0x2c,%esp
 804932b:	89 d7                	mov    %edx,%edi
 804932d:	89 4c 24 0c          	mov    %ecx,0xc(%esp)
 8049331:	65 8b 15 14 00 00 00 	mov    %gs:0x14,%edx
 8049338:	89 54 24 1c          	mov    %edx,0x1c(%esp)
 804933c:	31 d2                	xor    %edx,%edx
 804933e:	83 f9 01             	cmp    $0x1,%ecx
 8049341:	76 79                	jbe    80493bc <rio_readlineb+0x98>
 8049343:	89 c3                	mov    %eax,%ebx
 8049345:	89 4c 24 08          	mov    %ecx,0x8(%esp)
 8049349:	bd 01 00 00 00       	mov    $0x1,%ebp
 804934e:	8d 73 0c             	lea    0xc(%ebx),%esi
 8049351:	eb 2d                	jmp    8049380 <rio_readlineb+0x5c>
 8049353:	83 ec 04             	sub    $0x4,%esp
 8049356:	68 00 20 00 00       	push   $0x2000
 804935b:	56                   	push   %esi
 804935c:	ff 33                	pushl  (%ebx)
 804935e:	e8 cd f3 ff ff       	call   8048730 <read@plt>
 8049363:	89 43 04             	mov    %eax,0x4(%ebx)
 8049366:	83 c4 10             	add    $0x10,%esp
 8049369:	85 c0                	test   %eax,%eax
 804936b:	79 0c                	jns    8049379 <rio_readlineb+0x55>
 804936d:	e8 be f4 ff ff       	call   8048830 <__errno_location@plt>
 8049372:	83 38 04             	cmpl   $0x4,(%eax)
 8049375:	74 09                	je     8049380 <rio_readlineb+0x5c>
 8049377:	eb 62                	jmp    80493db <rio_readlineb+0xb7>
 8049379:	85 c0                	test   %eax,%eax
 804937b:	74 63                	je     80493e0 <rio_readlineb+0xbc>
 804937d:	89 73 08             	mov    %esi,0x8(%ebx)
 8049380:	8b 43 04             	mov    0x4(%ebx),%eax
 8049383:	85 c0                	test   %eax,%eax
 8049385:	7e cc                	jle    8049353 <rio_readlineb+0x2f>
 8049387:	8b 4b 08             	mov    0x8(%ebx),%ecx
 804938a:	0f b6 11             	movzbl (%ecx),%edx
 804938d:	88 54 24 1b          	mov    %dl,0x1b(%esp)
 8049391:	83 c1 01             	add    $0x1,%ecx
 8049394:	89 4b 08             	mov    %ecx,0x8(%ebx)
 8049397:	83 e8 01             	sub    $0x1,%eax
 804939a:	89 43 04             	mov    %eax,0x4(%ebx)
 804939d:	83 c7 01             	add    $0x1,%edi
 80493a0:	88 57 ff             	mov    %dl,-0x1(%edi)
 80493a3:	80 fa 0a             	cmp    $0xa,%dl
 80493a6:	75 09                	jne    80493b1 <rio_readlineb+0x8d>
 80493a8:	eb 1d                	jmp    80493c7 <rio_readlineb+0xa3>
 80493aa:	83 fd 01             	cmp    $0x1,%ebp
 80493ad:	75 18                	jne    80493c7 <rio_readlineb+0xa3>
 80493af:	eb 1b                	jmp    80493cc <rio_readlineb+0xa8>
 80493b1:	83 c5 01             	add    $0x1,%ebp
 80493b4:	3b 6c 24 08          	cmp    0x8(%esp),%ebp
 80493b8:	74 09                	je     80493c3 <rio_readlineb+0x9f>
 80493ba:	eb c4                	jmp    8049380 <rio_readlineb+0x5c>
 80493bc:	bd 01 00 00 00       	mov    $0x1,%ebp
 80493c1:	eb 04                	jmp    80493c7 <rio_readlineb+0xa3>
 80493c3:	8b 6c 24 0c          	mov    0xc(%esp),%ebp
 80493c7:	c6 07 00             	movb   $0x0,(%edi)
 80493ca:	89 e8                	mov    %ebp,%eax
 80493cc:	8b 54 24 1c          	mov    0x1c(%esp),%edx
 80493d0:	65 33 15 14 00 00 00 	xor    %gs:0x14,%edx
 80493d7:	74 17                	je     80493f0 <rio_readlineb+0xcc>
 80493d9:	eb 10                	jmp    80493eb <rio_readlineb+0xc7>
 80493db:	b8 ff ff ff ff       	mov    $0xffffffff,%eax
 80493e0:	85 c0                	test   %eax,%eax
 80493e2:	74 c6                	je     80493aa <rio_readlineb+0x86>
 80493e4:	b8 ff ff ff ff       	mov    $0xffffffff,%eax
 80493e9:	eb e1                	jmp    80493cc <rio_readlineb+0xa8>
 80493eb:	e8 a0 f3 ff ff       	call   8048790 <__stack_chk_fail@plt>
 80493f0:	83 c4 2c             	add    $0x2c,%esp
 80493f3:	5b                   	pop    %ebx
 80493f4:	5e                   	pop    %esi
 80493f5:	5f                   	pop    %edi
 80493f6:	5d                   	pop    %ebp
 80493f7:	c3                   	ret    

080493f8 <submitr>:
 80493f8:	55                   	push   %ebp
 80493f9:	57                   	push   %edi
 80493fa:	56                   	push   %esi
 80493fb:	53                   	push   %ebx
 80493fc:	81 ec 60 a0 00 00    	sub    $0xa060,%esp
 8049402:	8b b4 24 74 a0 00 00 	mov    0xa074(%esp),%esi
 8049409:	8b 84 24 7c a0 00 00 	mov    0xa07c(%esp),%eax
 8049410:	89 44 24 10          	mov    %eax,0x10(%esp)
 8049414:	8b 84 24 80 a0 00 00 	mov    0xa080(%esp),%eax
 804941b:	89 44 24 14          	mov    %eax,0x14(%esp)
 804941f:	8b 84 24 84 a0 00 00 	mov    0xa084(%esp),%eax
 8049426:	89 44 24 18          	mov    %eax,0x18(%esp)
 804942a:	8b 9c 24 88 a0 00 00 	mov    0xa088(%esp),%ebx
 8049431:	8b 84 24 8c a0 00 00 	mov    0xa08c(%esp),%eax
 8049438:	89 44 24 1c          	mov    %eax,0x1c(%esp)
 804943c:	65 a1 14 00 00 00    	mov    %gs:0x14,%eax
 8049442:	89 84 24 50 a0 00 00 	mov    %eax,0xa050(%esp)
 8049449:	31 c0                	xor    %eax,%eax
 804944b:	c7 44 24 30 00 00 00 	movl   $0x0,0x30(%esp)
 8049452:	00 
 8049453:	6a 00                	push   $0x0
 8049455:	6a 01                	push   $0x1
 8049457:	6a 02                	push   $0x2
 8049459:	e8 f2 f3 ff ff       	call   8048850 <socket@plt>
 804945e:	89 44 24 18          	mov    %eax,0x18(%esp)
 8049462:	83 c4 10             	add    $0x10,%esp
 8049465:	85 c0                	test   %eax,%eax
 8049467:	79 52                	jns    80494bb <submitr+0xc3>
 8049469:	8b 44 24 18          	mov    0x18(%esp),%eax
 804946d:	c7 00 45 72 72 6f    	movl   $0x6f727245,(%eax)
 8049473:	c7 40 04 72 3a 20 43 	movl   $0x43203a72,0x4(%eax)
 804947a:	c7 40 08 6c 69 65 6e 	movl   $0x6e65696c,0x8(%eax)
 8049481:	c7 40 0c 74 20 75 6e 	movl   $0x6e752074,0xc(%eax)
 8049488:	c7 40 10 61 62 6c 65 	movl   $0x656c6261,0x10(%eax)
 804948f:	c7 40 14 20 74 6f 20 	movl   $0x206f7420,0x14(%eax)
 8049496:	c7 40 18 63 72 65 61 	movl   $0x61657263,0x18(%eax)
 804949d:	c7 40 1c 74 65 20 73 	movl   $0x73206574,0x1c(%eax)
 80494a4:	c7 40 20 6f 63 6b 65 	movl   $0x656b636f,0x20(%eax)
 80494ab:	66 c7 40 24 74 00    	movw   $0x74,0x24(%eax)
 80494b1:	b8 ff ff ff ff       	mov    $0xffffffff,%eax
 80494b6:	e9 3f 06 00 00       	jmp    8049afa <submitr+0x702>
 80494bb:	83 ec 0c             	sub    $0xc,%esp
 80494be:	56                   	push   %esi
 80494bf:	e8 ac f3 ff ff       	call   8048870 <gethostbyname@plt>
 80494c4:	83 c4 10             	add    $0x10,%esp
 80494c7:	85 c0                	test   %eax,%eax
 80494c9:	75 73                	jne    804953e <submitr+0x146>
 80494cb:	8b 44 24 18          	mov    0x18(%esp),%eax
 80494cf:	c7 00 45 72 72 6f    	movl   $0x6f727245,(%eax)
 80494d5:	c7 40 04 72 3a 20 44 	movl   $0x44203a72,0x4(%eax)
 80494dc:	c7 40 08 4e 53 20 69 	movl   $0x6920534e,0x8(%eax)
 80494e3:	c7 40 0c 73 20 75 6e 	movl   $0x6e752073,0xc(%eax)
 80494ea:	c7 40 10 61 62 6c 65 	movl   $0x656c6261,0x10(%eax)
 80494f1:	c7 40 14 20 74 6f 20 	movl   $0x206f7420,0x14(%eax)
 80494f8:	c7 40 18 72 65 73 6f 	movl   $0x6f736572,0x18(%eax)
 80494ff:	c7 40 1c 6c 76 65 20 	movl   $0x2065766c,0x1c(%eax)
 8049506:	c7 40 20 73 65 72 76 	movl   $0x76726573,0x20(%eax)
 804950d:	c7 40 24 65 72 20 61 	movl   $0x61207265,0x24(%eax)
 8049514:	c7 40 28 64 64 72 65 	movl   $0x65726464,0x28(%eax)
 804951b:	66 c7 40 2c 73 73    	movw   $0x7373,0x2c(%eax)
 8049521:	c6 40 2e 00          	movb   $0x0,0x2e(%eax)
 8049525:	83 ec 0c             	sub    $0xc,%esp
 8049528:	ff 74 24 14          	pushl  0x14(%esp)
 804952c:	e8 6f f3 ff ff       	call   80488a0 <close@plt>
 8049531:	83 c4 10             	add    $0x10,%esp
 8049534:	b8 ff ff ff ff       	mov    $0xffffffff,%eax
 8049539:	e9 bc 05 00 00       	jmp    8049afa <submitr+0x702>
 804953e:	8d 74 24 30          	lea    0x30(%esp),%esi
 8049542:	c7 44 24 30 00 00 00 	movl   $0x0,0x30(%esp)
 8049549:	00 
 804954a:	c7 44 24 34 00 00 00 	movl   $0x0,0x34(%esp)
 8049551:	00 
 8049552:	c7 44 24 38 00 00 00 	movl   $0x0,0x38(%esp)
 8049559:	00 
 804955a:	c7 44 24 3c 00 00 00 	movl   $0x0,0x3c(%esp)
 8049561:	00 
 8049562:	66 c7 44 24 30 02 00 	movw   $0x2,0x30(%esp)
 8049569:	6a 0c                	push   $0xc
 804956b:	ff 70 0c             	pushl  0xc(%eax)
 804956e:	8b 40 10             	mov    0x10(%eax),%eax
 8049571:	ff 30                	pushl  (%eax)
 8049573:	8d 44 24 40          	lea    0x40(%esp),%eax
 8049577:	50                   	push   %eax
 8049578:	e8 53 f2 ff ff       	call   80487d0 <__memmove_chk@plt>
 804957d:	0f b7 84 24 84 a0 00 	movzwl 0xa084(%esp),%eax
 8049584:	00 
 8049585:	66 c1 c8 08          	ror    $0x8,%ax
 8049589:	66 89 44 24 42       	mov    %ax,0x42(%esp)
 804958e:	83 c4 0c             	add    $0xc,%esp
 8049591:	6a 10                	push   $0x10
 8049593:	56                   	push   %esi
 8049594:	ff 74 24 14          	pushl  0x14(%esp)
 8049598:	e8 f3 f2 ff ff       	call   8048890 <connect@plt>
 804959d:	83 c4 10             	add    $0x10,%esp
 80495a0:	85 c0                	test   %eax,%eax
 80495a2:	79 65                	jns    8049609 <submitr+0x211>
 80495a4:	8b 44 24 18          	mov    0x18(%esp),%eax
 80495a8:	c7 00 45 72 72 6f    	movl   $0x6f727245,(%eax)
 80495ae:	c7 40 04 72 3a 20 55 	movl   $0x55203a72,0x4(%eax)
 80495b5:	c7 40 08 6e 61 62 6c 	movl   $0x6c62616e,0x8(%eax)
 80495bc:	c7 40 0c 65 20 74 6f 	movl   $0x6f742065,0xc(%eax)
 80495c3:	c7 40 10 20 63 6f 6e 	movl   $0x6e6f6320,0x10(%eax)
 80495ca:	c7 40 14 6e 65 63 74 	movl   $0x7463656e,0x14(%eax)
 80495d1:	c7 40 18 20 74 6f 20 	movl   $0x206f7420,0x18(%eax)
 80495d8:	c7 40 1c 74 68 65 20 	movl   $0x20656874,0x1c(%eax)
 80495df:	c7 40 20 73 65 72 76 	movl   $0x76726573,0x20(%eax)
 80495e6:	66 c7 40 24 65 72    	movw   $0x7265,0x24(%eax)
 80495ec:	c6 40 26 00          	movb   $0x0,0x26(%eax)
 80495f0:	83 ec 0c             	sub    $0xc,%esp
 80495f3:	ff 74 24 14          	pushl  0x14(%esp)
 80495f7:	e8 a4 f2 ff ff       	call   80488a0 <close@plt>
 80495fc:	83 c4 10             	add    $0x10,%esp
 80495ff:	b8 ff ff ff ff       	mov    $0xffffffff,%eax
 8049604:	e9 f1 04 00 00       	jmp    8049afa <submitr+0x702>
 8049609:	be ff ff ff ff       	mov    $0xffffffff,%esi
 804960e:	b8 00 00 00 00       	mov    $0x0,%eax
 8049613:	89 f1                	mov    %esi,%ecx
 8049615:	89 df                	mov    %ebx,%edi
 8049617:	f2 ae                	repnz scas %es:(%edi),%al
 8049619:	f7 d1                	not    %ecx
 804961b:	89 cd                	mov    %ecx,%ebp
 804961d:	89 f1                	mov    %esi,%ecx
 804961f:	8b 7c 24 0c          	mov    0xc(%esp),%edi
 8049623:	f2 ae                	repnz scas %es:(%edi),%al
 8049625:	89 4c 24 1c          	mov    %ecx,0x1c(%esp)
 8049629:	89 f1                	mov    %esi,%ecx
 804962b:	8b 7c 24 10          	mov    0x10(%esp),%edi
 804962f:	f2 ae                	repnz scas %es:(%edi),%al
 8049631:	89 ca                	mov    %ecx,%edx
 8049633:	f7 d2                	not    %edx
 8049635:	89 f1                	mov    %esi,%ecx
 8049637:	8b 7c 24 14          	mov    0x14(%esp),%edi
 804963b:	f2 ae                	repnz scas %es:(%edi),%al
 804963d:	2b 54 24 1c          	sub    0x1c(%esp),%edx
 8049641:	29 ca                	sub    %ecx,%edx
 8049643:	8d 44 6d fd          	lea    -0x3(%ebp,%ebp,2),%eax
 8049647:	8d 44 02 7b          	lea    0x7b(%edx,%eax,1),%eax
 804964b:	3d 00 20 00 00       	cmp    $0x2000,%eax
 8049650:	76 7e                	jbe    80496d0 <submitr+0x2d8>
 8049652:	8b 44 24 18          	mov    0x18(%esp),%eax
 8049656:	c7 00 45 72 72 6f    	movl   $0x6f727245,(%eax)
 804965c:	c7 40 04 72 3a 20 52 	movl   $0x52203a72,0x4(%eax)
 8049663:	c7 40 08 65 73 75 6c 	movl   $0x6c757365,0x8(%eax)
 804966a:	c7 40 0c 74 20 73 74 	movl   $0x74732074,0xc(%eax)
 8049671:	c7 40 10 72 69 6e 67 	movl   $0x676e6972,0x10(%eax)
 8049678:	c7 40 14 20 74 6f 6f 	movl   $0x6f6f7420,0x14(%eax)
 804967f:	c7 40 18 20 6c 61 72 	movl   $0x72616c20,0x18(%eax)
 8049686:	c7 40 1c 67 65 2e 20 	movl   $0x202e6567,0x1c(%eax)
 804968d:	c7 40 20 49 6e 63 72 	movl   $0x72636e49,0x20(%eax)
 8049694:	c7 40 24 65 61 73 65 	movl   $0x65736165,0x24(%eax)
 804969b:	c7 40 28 20 53 55 42 	movl   $0x42555320,0x28(%eax)
 80496a2:	c7 40 2c 4d 49 54 52 	movl   $0x5254494d,0x2c(%eax)
 80496a9:	c7 40 30 5f 4d 41 58 	movl   $0x58414d5f,0x30(%eax)
 80496b0:	c7 40 34 42 55 46 00 	movl   $0x465542,0x34(%eax)
 80496b7:	83 ec 0c             	sub    $0xc,%esp
 80496ba:	ff 74 24 14          	pushl  0x14(%esp)
 80496be:	e8 dd f1 ff ff       	call   80488a0 <close@plt>
 80496c3:	83 c4 10             	add    $0x10,%esp
 80496c6:	b8 ff ff ff ff       	mov    $0xffffffff,%eax
 80496cb:	e9 2a 04 00 00       	jmp    8049afa <submitr+0x702>
 80496d0:	8d 94 24 4c 40 00 00 	lea    0x404c(%esp),%edx
 80496d7:	b9 00 08 00 00       	mov    $0x800,%ecx
 80496dc:	b8 00 00 00 00       	mov    $0x0,%eax
 80496e1:	89 d7                	mov    %edx,%edi
 80496e3:	f3 ab                	rep stos %eax,%es:(%edi)
 80496e5:	b9 ff ff ff ff       	mov    $0xffffffff,%ecx
 80496ea:	89 df                	mov    %ebx,%edi
 80496ec:	f2 ae                	repnz scas %es:(%edi),%al
 80496ee:	f7 d1                	not    %ecx
 80496f0:	89 ce                	mov    %ecx,%esi
 80496f2:	83 ee 01             	sub    $0x1,%esi
 80496f5:	0f 84 5c 04 00 00    	je     8049b57 <submitr+0x75f>
 80496fb:	89 d5                	mov    %edx,%ebp
 80496fd:	bf d9 ff 00 00       	mov    $0xffd9,%edi
 8049702:	0f b6 13             	movzbl (%ebx),%edx
 8049705:	8d 4a d6             	lea    -0x2a(%edx),%ecx
 8049708:	b8 01 00 00 00       	mov    $0x1,%eax
 804970d:	80 f9 0f             	cmp    $0xf,%cl
 8049710:	77 0a                	ja     804971c <submitr+0x324>
 8049712:	89 f8                	mov    %edi,%eax
 8049714:	d3 e8                	shr    %cl,%eax
 8049716:	83 f0 01             	xor    $0x1,%eax
 8049719:	83 e0 01             	and    $0x1,%eax
 804971c:	80 fa 5f             	cmp    $0x5f,%dl
 804971f:	0f 94 c1             	sete   %cl
 8049722:	38 c1                	cmp    %al,%cl
 8049724:	73 0c                	jae    8049732 <submitr+0x33a>
 8049726:	89 d0                	mov    %edx,%eax
 8049728:	83 e0 df             	and    $0xffffffdf,%eax
 804972b:	83 e8 41             	sub    $0x41,%eax
 804972e:	3c 19                	cmp    $0x19,%al
 8049730:	77 08                	ja     804973a <submitr+0x342>
 8049732:	88 55 00             	mov    %dl,0x0(%ebp)
 8049735:	8d 6d 01             	lea    0x1(%ebp),%ebp
 8049738:	eb 62                	jmp    804979c <submitr+0x3a4>
 804973a:	80 fa 20             	cmp    $0x20,%dl
 804973d:	75 09                	jne    8049748 <submitr+0x350>
 804973f:	c6 45 00 2b          	movb   $0x2b,0x0(%ebp)
 8049743:	8d 6d 01             	lea    0x1(%ebp),%ebp
 8049746:	eb 54                	jmp    804979c <submitr+0x3a4>
 8049748:	8d 42 e0             	lea    -0x20(%edx),%eax
 804974b:	3c 5f                	cmp    $0x5f,%al
 804974d:	76 09                	jbe    8049758 <submitr+0x360>
 804974f:	80 fa 09             	cmp    $0x9,%dl
 8049752:	0f 85 bb 03 00 00    	jne    8049b13 <submitr+0x71b>
 8049758:	83 ec 0c             	sub    $0xc,%esp
 804975b:	0f b6 d2             	movzbl %dl,%edx
 804975e:	52                   	push   %edx
 804975f:	68 74 a3 04 08       	push   $0x804a374
 8049764:	6a 08                	push   $0x8
 8049766:	6a 01                	push   $0x1
 8049768:	8d 84 24 68 80 00 00 	lea    0x8068(%esp),%eax
 804976f:	50                   	push   %eax
 8049770:	e8 4b f1 ff ff       	call   80488c0 <__sprintf_chk@plt>
 8049775:	0f b6 84 24 6c 80 00 	movzbl 0x806c(%esp),%eax
 804977c:	00 
 804977d:	88 45 00             	mov    %al,0x0(%ebp)
 8049780:	0f b6 84 24 6d 80 00 	movzbl 0x806d(%esp),%eax
 8049787:	00 
 8049788:	88 45 01             	mov    %al,0x1(%ebp)
 804978b:	0f b6 84 24 6e 80 00 	movzbl 0x806e(%esp),%eax
 8049792:	00 
 8049793:	88 45 02             	mov    %al,0x2(%ebp)
 8049796:	83 c4 20             	add    $0x20,%esp
 8049799:	8d 6d 03             	lea    0x3(%ebp),%ebp
 804979c:	83 c3 01             	add    $0x1,%ebx
 804979f:	83 ee 01             	sub    $0x1,%esi
 80497a2:	0f 85 5a ff ff ff    	jne    8049702 <submitr+0x30a>
 80497a8:	e9 aa 03 00 00       	jmp    8049b57 <submitr+0x75f>
 80497ad:	83 ec 04             	sub    $0x4,%esp
 80497b0:	53                   	push   %ebx
 80497b1:	56                   	push   %esi
 80497b2:	55                   	push   %ebp
 80497b3:	e8 48 f0 ff ff       	call   8048800 <write@plt>
 80497b8:	83 c4 10             	add    $0x10,%esp
 80497bb:	85 c0                	test   %eax,%eax
 80497bd:	7f 0f                	jg     80497ce <submitr+0x3d6>
 80497bf:	e8 6c f0 ff ff       	call   8048830 <__errno_location@plt>
 80497c4:	83 38 04             	cmpl   $0x4,(%eax)
 80497c7:	75 0f                	jne    80497d8 <submitr+0x3e0>
 80497c9:	b8 00 00 00 00       	mov    $0x0,%eax
 80497ce:	01 c6                	add    %eax,%esi
 80497d0:	29 c3                	sub    %eax,%ebx
 80497d2:	75 d9                	jne    80497ad <submitr+0x3b5>
 80497d4:	85 ff                	test   %edi,%edi
 80497d6:	79 69                	jns    8049841 <submitr+0x449>
 80497d8:	8b 44 24 18          	mov    0x18(%esp),%eax
 80497dc:	c7 00 45 72 72 6f    	movl   $0x6f727245,(%eax)
 80497e2:	c7 40 04 72 3a 20 43 	movl   $0x43203a72,0x4(%eax)
 80497e9:	c7 40 08 6c 69 65 6e 	movl   $0x6e65696c,0x8(%eax)
 80497f0:	c7 40 0c 74 20 75 6e 	movl   $0x6e752074,0xc(%eax)
 80497f7:	c7 40 10 61 62 6c 65 	movl   $0x656c6261,0x10(%eax)
 80497fe:	c7 40 14 20 74 6f 20 	movl   $0x206f7420,0x14(%eax)
 8049805:	c7 40 18 77 72 69 74 	movl   $0x74697277,0x18(%eax)
 804980c:	c7 40 1c 65 20 74 6f 	movl   $0x6f742065,0x1c(%eax)
 8049813:	c7 40 20 20 74 68 65 	movl   $0x65687420,0x20(%eax)
 804981a:	c7 40 24 20 73 65 72 	movl   $0x72657320,0x24(%eax)
 8049821:	c7 40 28 76 65 72 00 	movl   $0x726576,0x28(%eax)
 8049828:	83 ec 0c             	sub    $0xc,%esp
 804982b:	ff 74 24 14          	pushl  0x14(%esp)
 804982f:	e8 6c f0 ff ff       	call   80488a0 <close@plt>
 8049834:	83 c4 10             	add    $0x10,%esp
 8049837:	b8 ff ff ff ff       	mov    $0xffffffff,%eax
 804983c:	e9 b9 02 00 00       	jmp    8049afa <submitr+0x702>
 8049841:	8b 44 24 08          	mov    0x8(%esp),%eax
 8049845:	89 44 24 40          	mov    %eax,0x40(%esp)
 8049849:	c7 44 24 44 00 00 00 	movl   $0x0,0x44(%esp)
 8049850:	00 
 8049851:	8d 44 24 4c          	lea    0x4c(%esp),%eax
 8049855:	89 44 24 48          	mov    %eax,0x48(%esp)
 8049859:	b9 00 20 00 00       	mov    $0x2000,%ecx
 804985e:	8d 94 24 4c 20 00 00 	lea    0x204c(%esp),%edx
 8049865:	8d 44 24 40          	lea    0x40(%esp),%eax
 8049869:	e8 b6 fa ff ff       	call   8049324 <rio_readlineb>
 804986e:	85 c0                	test   %eax,%eax
 8049870:	7f 7d                	jg     80498ef <submitr+0x4f7>
 8049872:	8b 44 24 18          	mov    0x18(%esp),%eax
 8049876:	c7 00 45 72 72 6f    	movl   $0x6f727245,(%eax)
 804987c:	c7 40 04 72 3a 20 43 	movl   $0x43203a72,0x4(%eax)
 8049883:	c7 40 08 6c 69 65 6e 	movl   $0x6e65696c,0x8(%eax)
 804988a:	c7 40 0c 74 20 75 6e 	movl   $0x6e752074,0xc(%eax)
 8049891:	c7 40 10 61 62 6c 65 	movl   $0x656c6261,0x10(%eax)
 8049898:	c7 40 14 20 74 6f 20 	movl   $0x206f7420,0x14(%eax)
 804989f:	c7 40 18 72 65 61 64 	movl   $0x64616572,0x18(%eax)
 80498a6:	c7 40 1c 20 66 69 72 	movl   $0x72696620,0x1c(%eax)
 80498ad:	c7 40 20 73 74 20 68 	movl   $0x68207473,0x20(%eax)
 80498b4:	c7 40 24 65 61 64 65 	movl   $0x65646165,0x24(%eax)
 80498bb:	c7 40 28 72 20 66 72 	movl   $0x72662072,0x28(%eax)
 80498c2:	c7 40 2c 6f 6d 20 73 	movl   $0x73206d6f,0x2c(%eax)
 80498c9:	c7 40 30 65 72 76 65 	movl   $0x65767265,0x30(%eax)
 80498d0:	66 c7 40 34 72 00    	movw   $0x72,0x34(%eax)
 80498d6:	83 ec 0c             	sub    $0xc,%esp
 80498d9:	ff 74 24 14          	pushl  0x14(%esp)
 80498dd:	e8 be ef ff ff       	call   80488a0 <close@plt>
 80498e2:	83 c4 10             	add    $0x10,%esp
 80498e5:	b8 ff ff ff ff       	mov    $0xffffffff,%eax
 80498ea:	e9 0b 02 00 00       	jmp    8049afa <submitr+0x702>
 80498ef:	83 ec 0c             	sub    $0xc,%esp
 80498f2:	8d 84 24 58 80 00 00 	lea    0x8058(%esp),%eax
 80498f9:	50                   	push   %eax
 80498fa:	8d 44 24 3c          	lea    0x3c(%esp),%eax
 80498fe:	50                   	push   %eax
 80498ff:	8d 84 24 60 60 00 00 	lea    0x6060(%esp),%eax
 8049906:	50                   	push   %eax
 8049907:	68 7b a3 04 08       	push   $0x804a37b
 804990c:	8d 84 24 68 20 00 00 	lea    0x2068(%esp),%eax
 8049913:	50                   	push   %eax
 8049914:	e8 f7 ee ff ff       	call   8048810 <__isoc99_sscanf@plt>
 8049919:	8b 44 24 4c          	mov    0x4c(%esp),%eax
 804991d:	83 c4 20             	add    $0x20,%esp
 8049920:	3d c8 00 00 00       	cmp    $0xc8,%eax
 8049925:	0f 84 c4 00 00 00    	je     80499ef <submitr+0x5f7>
 804992b:	83 ec 08             	sub    $0x8,%esp
 804992e:	8d 94 24 54 80 00 00 	lea    0x8054(%esp),%edx
 8049935:	52                   	push   %edx
 8049936:	50                   	push   %eax
 8049937:	68 8c a2 04 08       	push   $0x804a28c
 804993c:	6a ff                	push   $0xffffffff
 804993e:	6a 01                	push   $0x1
 8049940:	ff 74 24 34          	pushl  0x34(%esp)
 8049944:	e8 77 ef ff ff       	call   80488c0 <__sprintf_chk@plt>
 8049949:	83 c4 14             	add    $0x14,%esp
 804994c:	ff 74 24 14          	pushl  0x14(%esp)
 8049950:	e8 4b ef ff ff       	call   80488a0 <close@plt>
 8049955:	83 c4 10             	add    $0x10,%esp
 8049958:	b8 ff ff ff ff       	mov    $0xffffffff,%eax
 804995d:	e9 98 01 00 00       	jmp    8049afa <submitr+0x702>
 8049962:	b9 00 20 00 00       	mov    $0x2000,%ecx
 8049967:	8d 94 24 4c 20 00 00 	lea    0x204c(%esp),%edx
 804996e:	8d 44 24 40          	lea    0x40(%esp),%eax
 8049972:	e8 ad f9 ff ff       	call   8049324 <rio_readlineb>
 8049977:	85 c0                	test   %eax,%eax
 8049979:	7f 74                	jg     80499ef <submitr+0x5f7>
 804997b:	8b 44 24 18          	mov    0x18(%esp),%eax
 804997f:	c7 00 45 72 72 6f    	movl   $0x6f727245,(%eax)
 8049985:	c7 40 04 72 3a 20 43 	movl   $0x43203a72,0x4(%eax)
 804998c:	c7 40 08 6c 69 65 6e 	movl   $0x6e65696c,0x8(%eax)
 8049993:	c7 40 0c 74 20 75 6e 	movl   $0x6e752074,0xc(%eax)
 804999a:	c7 40 10 61 62 6c 65 	movl   $0x656c6261,0x10(%eax)
 80499a1:	c7 40 14 20 74 6f 20 	movl   $0x206f7420,0x14(%eax)
 80499a8:	c7 40 18 72 65 61 64 	movl   $0x64616572,0x18(%eax)
 80499af:	c7 40 1c 20 68 65 61 	movl   $0x61656820,0x1c(%eax)
 80499b6:	c7 40 20 64 65 72 73 	movl   $0x73726564,0x20(%eax)
 80499bd:	c7 40 24 20 66 72 6f 	movl   $0x6f726620,0x24(%eax)
 80499c4:	c7 40 28 6d 20 73 65 	movl   $0x6573206d,0x28(%eax)
 80499cb:	c7 40 2c 72 76 65 72 	movl   $0x72657672,0x2c(%eax)
 80499d2:	c6 40 30 00          	movb   $0x0,0x30(%eax)
 80499d6:	83 ec 0c             	sub    $0xc,%esp
 80499d9:	ff 74 24 14          	pushl  0x14(%esp)
 80499dd:	e8 be ee ff ff       	call   80488a0 <close@plt>
 80499e2:	83 c4 10             	add    $0x10,%esp
 80499e5:	b8 ff ff ff ff       	mov    $0xffffffff,%eax
 80499ea:	e9 0b 01 00 00       	jmp    8049afa <submitr+0x702>
 80499ef:	80 bc 24 4c 20 00 00 	cmpb   $0xd,0x204c(%esp)
 80499f6:	0d 
 80499f7:	0f 85 65 ff ff ff    	jne    8049962 <submitr+0x56a>
 80499fd:	80 bc 24 4d 20 00 00 	cmpb   $0xa,0x204d(%esp)
 8049a04:	0a 
 8049a05:	0f 85 57 ff ff ff    	jne    8049962 <submitr+0x56a>
 8049a0b:	80 bc 24 4e 20 00 00 	cmpb   $0x0,0x204e(%esp)
 8049a12:	00 
 8049a13:	0f 85 49 ff ff ff    	jne    8049962 <submitr+0x56a>
 8049a19:	b9 00 20 00 00       	mov    $0x2000,%ecx
 8049a1e:	8d 94 24 4c 20 00 00 	lea    0x204c(%esp),%edx
 8049a25:	8d 44 24 40          	lea    0x40(%esp),%eax
 8049a29:	e8 f6 f8 ff ff       	call   8049324 <rio_readlineb>
 8049a2e:	85 c0                	test   %eax,%eax
 8049a30:	7f 7b                	jg     8049aad <submitr+0x6b5>
 8049a32:	8b 44 24 18          	mov    0x18(%esp),%eax
 8049a36:	c7 00 45 72 72 6f    	movl   $0x6f727245,(%eax)
 8049a3c:	c7 40 04 72 3a 20 43 	movl   $0x43203a72,0x4(%eax)
 8049a43:	c7 40 08 6c 69 65 6e 	movl   $0x6e65696c,0x8(%eax)
 8049a4a:	c7 40 0c 74 20 75 6e 	movl   $0x6e752074,0xc(%eax)
 8049a51:	c7 40 10 61 62 6c 65 	movl   $0x656c6261,0x10(%eax)
 8049a58:	c7 40 14 20 74 6f 20 	movl   $0x206f7420,0x14(%eax)
 8049a5f:	c7 40 18 72 65 61 64 	movl   $0x64616572,0x18(%eax)
 8049a66:	c7 40 1c 20 73 74 61 	movl   $0x61747320,0x1c(%eax)
 8049a6d:	c7 40 20 74 75 73 20 	movl   $0x20737574,0x20(%eax)
 8049a74:	c7 40 24 6d 65 73 73 	movl   $0x7373656d,0x24(%eax)
 8049a7b:	c7 40 28 61 67 65 20 	movl   $0x20656761,0x28(%eax)
 8049a82:	c7 40 2c 66 72 6f 6d 	movl   $0x6d6f7266,0x2c(%eax)
 8049a89:	c7 40 30 20 73 65 72 	movl   $0x72657320,0x30(%eax)
 8049a90:	c7 40 34 76 65 72 00 	movl   $0x726576,0x34(%eax)
 8049a97:	83 ec 0c             	sub    $0xc,%esp
 8049a9a:	ff 74 24 14          	pushl  0x14(%esp)
 8049a9e:	e8 fd ed ff ff       	call   80488a0 <close@plt>
 8049aa3:	83 c4 10             	add    $0x10,%esp
 8049aa6:	b8 ff ff ff ff       	mov    $0xffffffff,%eax
 8049aab:	eb 4d                	jmp    8049afa <submitr+0x702>
 8049aad:	83 ec 08             	sub    $0x8,%esp
 8049ab0:	8d 84 24 54 20 00 00 	lea    0x2054(%esp),%eax
 8049ab7:	50                   	push   %eax
 8049ab8:	8b 7c 24 24          	mov    0x24(%esp),%edi
 8049abc:	57                   	push   %edi
 8049abd:	e8 de ec ff ff       	call   80487a0 <strcpy@plt>
 8049ac2:	83 c4 04             	add    $0x4,%esp
 8049ac5:	ff 74 24 14          	pushl  0x14(%esp)
 8049ac9:	e8 d2 ed ff ff       	call   80488a0 <close@plt>
 8049ace:	0f b6 17             	movzbl (%edi),%edx
 8049ad1:	b8 4f 00 00 00       	mov    $0x4f,%eax
 8049ad6:	83 c4 10             	add    $0x10,%esp
 8049ad9:	29 d0                	sub    %edx,%eax
 8049adb:	75 13                	jne    8049af0 <submitr+0x6f8>
 8049add:	0f b6 57 01          	movzbl 0x1(%edi),%edx
 8049ae1:	b8 4b 00 00 00       	mov    $0x4b,%eax
 8049ae6:	29 d0                	sub    %edx,%eax
 8049ae8:	75 06                	jne    8049af0 <submitr+0x6f8>
 8049aea:	0f b6 47 02          	movzbl 0x2(%edi),%eax
 8049aee:	f7 d8                	neg    %eax
 8049af0:	85 c0                	test   %eax,%eax
 8049af2:	0f 95 c0             	setne  %al
 8049af5:	0f b6 c0             	movzbl %al,%eax
 8049af8:	f7 d8                	neg    %eax
 8049afa:	8b bc 24 4c a0 00 00 	mov    0xa04c(%esp),%edi
 8049b01:	65 33 3d 14 00 00 00 	xor    %gs:0x14,%edi
 8049b08:	0f 84 a9 00 00 00    	je     8049bb7 <submitr+0x7bf>
 8049b0e:	e9 9f 00 00 00       	jmp    8049bb2 <submitr+0x7ba>
 8049b13:	a1 bc a2 04 08       	mov    0x804a2bc,%eax
 8049b18:	8b 7c 24 18          	mov    0x18(%esp),%edi
 8049b1c:	89 07                	mov    %eax,(%edi)
 8049b1e:	a1 fb a2 04 08       	mov    0x804a2fb,%eax
 8049b23:	89 47 3f             	mov    %eax,0x3f(%edi)
 8049b26:	89 f8                	mov    %edi,%eax
 8049b28:	83 c7 04             	add    $0x4,%edi
 8049b2b:	83 e7 fc             	and    $0xfffffffc,%edi
 8049b2e:	29 f8                	sub    %edi,%eax
 8049b30:	be bc a2 04 08       	mov    $0x804a2bc,%esi
 8049b35:	29 c6                	sub    %eax,%esi
 8049b37:	83 c0 43             	add    $0x43,%eax
 8049b3a:	c1 e8 02             	shr    $0x2,%eax
 8049b3d:	89 c1                	mov    %eax,%ecx
 8049b3f:	f3 a5                	rep movsl %ds:(%esi),%es:(%edi)
 8049b41:	83 ec 0c             	sub    $0xc,%esp
 8049b44:	ff 74 24 14          	pushl  0x14(%esp)
 8049b48:	e8 53 ed ff ff       	call   80488a0 <close@plt>
 8049b4d:	83 c4 10             	add    $0x10,%esp
 8049b50:	b8 ff ff ff ff       	mov    $0xffffffff,%eax
 8049b55:	eb a3                	jmp    8049afa <submitr+0x702>
 8049b57:	8d 84 24 4c 40 00 00 	lea    0x404c(%esp),%eax
 8049b5e:	50                   	push   %eax
 8049b5f:	ff 74 24 18          	pushl  0x18(%esp)
 8049b63:	ff 74 24 18          	pushl  0x18(%esp)
 8049b67:	ff 74 24 18          	pushl  0x18(%esp)
 8049b6b:	68 00 a3 04 08       	push   $0x804a300
 8049b70:	68 00 20 00 00       	push   $0x2000
 8049b75:	6a 01                	push   $0x1
 8049b77:	8d bc 24 68 20 00 00 	lea    0x2068(%esp),%edi
 8049b7e:	57                   	push   %edi
 8049b7f:	e8 3c ed ff ff       	call   80488c0 <__sprintf_chk@plt>
 8049b84:	b8 00 00 00 00       	mov    $0x0,%eax
 8049b89:	b9 ff ff ff ff       	mov    $0xffffffff,%ecx
 8049b8e:	f2 ae                	repnz scas %es:(%edi),%al
 8049b90:	f7 d1                	not    %ecx
 8049b92:	8d 79 ff             	lea    -0x1(%ecx),%edi
 8049b95:	83 c4 20             	add    $0x20,%esp
 8049b98:	89 fb                	mov    %edi,%ebx
 8049b9a:	8d b4 24 4c 20 00 00 	lea    0x204c(%esp),%esi
 8049ba1:	8b 6c 24 08          	mov    0x8(%esp),%ebp
 8049ba5:	85 ff                	test   %edi,%edi
 8049ba7:	0f 85 00 fc ff ff    	jne    80497ad <submitr+0x3b5>
 8049bad:	e9 8f fc ff ff       	jmp    8049841 <submitr+0x449>
 8049bb2:	e8 d9 eb ff ff       	call   8048790 <__stack_chk_fail@plt>
 8049bb7:	81 c4 5c a0 00 00    	add    $0xa05c,%esp
 8049bbd:	5b                   	pop    %ebx
 8049bbe:	5e                   	pop    %esi
 8049bbf:	5f                   	pop    %edi
 8049bc0:	5d                   	pop    %ebp
 8049bc1:	c3                   	ret    

08049bc2 <init_timeout>:
 8049bc2:	53                   	push   %ebx
 8049bc3:	83 ec 08             	sub    $0x8,%esp
 8049bc6:	8b 5c 24 10          	mov    0x10(%esp),%ebx
 8049bca:	85 db                	test   %ebx,%ebx
 8049bcc:	74 24                	je     8049bf2 <init_timeout+0x30>
 8049bce:	83 ec 08             	sub    $0x8,%esp
 8049bd1:	68 01 93 04 08       	push   $0x8049301
 8049bd6:	6a 0e                	push   $0xe
 8049bd8:	e8 83 eb ff ff       	call   8048760 <signal@plt>
 8049bdd:	85 db                	test   %ebx,%ebx
 8049bdf:	b8 00 00 00 00       	mov    $0x0,%eax
 8049be4:	0f 48 d8             	cmovs  %eax,%ebx
 8049be7:	89 1c 24             	mov    %ebx,(%esp)
 8049bea:	e8 91 eb ff ff       	call   8048780 <alarm@plt>
 8049bef:	83 c4 10             	add    $0x10,%esp
 8049bf2:	83 c4 08             	add    $0x8,%esp
 8049bf5:	5b                   	pop    %ebx
 8049bf6:	c3                   	ret    

08049bf7 <init_driver>:
 8049bf7:	57                   	push   %edi
 8049bf8:	56                   	push   %esi
 8049bf9:	53                   	push   %ebx
 8049bfa:	83 ec 28             	sub    $0x28,%esp
 8049bfd:	8b 74 24 38          	mov    0x38(%esp),%esi
 8049c01:	65 a1 14 00 00 00    	mov    %gs:0x14,%eax
 8049c07:	89 44 24 24          	mov    %eax,0x24(%esp)
 8049c0b:	31 c0                	xor    %eax,%eax
 8049c0d:	6a 01                	push   $0x1
 8049c0f:	6a 0d                	push   $0xd
 8049c11:	e8 4a eb ff ff       	call   8048760 <signal@plt>
 8049c16:	83 c4 08             	add    $0x8,%esp
 8049c19:	6a 01                	push   $0x1
 8049c1b:	6a 1d                	push   $0x1d
 8049c1d:	e8 3e eb ff ff       	call   8048760 <signal@plt>
 8049c22:	83 c4 08             	add    $0x8,%esp
 8049c25:	6a 01                	push   $0x1
 8049c27:	6a 1d                	push   $0x1d
 8049c29:	e8 32 eb ff ff       	call   8048760 <signal@plt>
 8049c2e:	83 c4 0c             	add    $0xc,%esp
 8049c31:	6a 00                	push   $0x0
 8049c33:	6a 01                	push   $0x1
 8049c35:	6a 02                	push   $0x2
 8049c37:	e8 14 ec ff ff       	call   8048850 <socket@plt>
 8049c3c:	83 c4 10             	add    $0x10,%esp
 8049c3f:	85 c0                	test   %eax,%eax
 8049c41:	79 4e                	jns    8049c91 <init_driver+0x9a>
 8049c43:	c7 06 45 72 72 6f    	movl   $0x6f727245,(%esi)
 8049c49:	c7 46 04 72 3a 20 43 	movl   $0x43203a72,0x4(%esi)
 8049c50:	c7 46 08 6c 69 65 6e 	movl   $0x6e65696c,0x8(%esi)
 8049c57:	c7 46 0c 74 20 75 6e 	movl   $0x6e752074,0xc(%esi)
 8049c5e:	c7 46 10 61 62 6c 65 	movl   $0x656c6261,0x10(%esi)
 8049c65:	c7 46 14 20 74 6f 20 	movl   $0x206f7420,0x14(%esi)
 8049c6c:	c7 46 18 63 72 65 61 	movl   $0x61657263,0x18(%esi)
 8049c73:	c7 46 1c 74 65 20 73 	movl   $0x73206574,0x1c(%esi)
 8049c7a:	c7 46 20 6f 63 6b 65 	movl   $0x656b636f,0x20(%esi)
 8049c81:	66 c7 46 24 74 00    	movw   $0x74,0x24(%esi)
 8049c87:	b8 ff ff ff ff       	mov    $0xffffffff,%eax
 8049c8c:	e9 1f 01 00 00       	jmp    8049db0 <init_driver+0x1b9>
 8049c91:	89 c3                	mov    %eax,%ebx
 8049c93:	83 ec 0c             	sub    $0xc,%esp
 8049c96:	68 8c a3 04 08       	push   $0x804a38c
 8049c9b:	e8 d0 eb ff ff       	call   8048870 <gethostbyname@plt>
 8049ca0:	83 c4 10             	add    $0x10,%esp
 8049ca3:	85 c0                	test   %eax,%eax
 8049ca5:	75 6c                	jne    8049d13 <init_driver+0x11c>
 8049ca7:	c7 06 45 72 72 6f    	movl   $0x6f727245,(%esi)
 8049cad:	c7 46 04 72 3a 20 44 	movl   $0x44203a72,0x4(%esi)
 8049cb4:	c7 46 08 4e 53 20 69 	movl   $0x6920534e,0x8(%esi)
 8049cbb:	c7 46 0c 73 20 75 6e 	movl   $0x6e752073,0xc(%esi)
 8049cc2:	c7 46 10 61 62 6c 65 	movl   $0x656c6261,0x10(%esi)
 8049cc9:	c7 46 14 20 74 6f 20 	movl   $0x206f7420,0x14(%esi)
 8049cd0:	c7 46 18 72 65 73 6f 	movl   $0x6f736572,0x18(%esi)
 8049cd7:	c7 46 1c 6c 76 65 20 	movl   $0x2065766c,0x1c(%esi)
 8049cde:	c7 46 20 73 65 72 76 	movl   $0x76726573,0x20(%esi)
 8049ce5:	c7 46 24 65 72 20 61 	movl   $0x61207265,0x24(%esi)
 8049cec:	c7 46 28 64 64 72 65 	movl   $0x65726464,0x28(%esi)
 8049cf3:	66 c7 46 2c 73 73    	movw   $0x7373,0x2c(%esi)
 8049cf9:	c6 46 2e 00          	movb   $0x0,0x2e(%esi)
 8049cfd:	83 ec 0c             	sub    $0xc,%esp
 8049d00:	53                   	push   %ebx
 8049d01:	e8 9a eb ff ff       	call   80488a0 <close@plt>
 8049d06:	83 c4 10             	add    $0x10,%esp
 8049d09:	b8 ff ff ff ff       	mov    $0xffffffff,%eax
 8049d0e:	e9 9d 00 00 00       	jmp    8049db0 <init_driver+0x1b9>
 8049d13:	8d 7c 24 0c          	lea    0xc(%esp),%edi
 8049d17:	c7 44 24 0c 00 00 00 	movl   $0x0,0xc(%esp)
 8049d1e:	00 
 8049d1f:	c7 44 24 10 00 00 00 	movl   $0x0,0x10(%esp)
 8049d26:	00 
 8049d27:	c7 44 24 14 00 00 00 	movl   $0x0,0x14(%esp)
 8049d2e:	00 
 8049d2f:	c7 44 24 18 00 00 00 	movl   $0x0,0x18(%esp)
 8049d36:	00 
 8049d37:	66 c7 44 24 0c 02 00 	movw   $0x2,0xc(%esp)
 8049d3e:	6a 0c                	push   $0xc
 8049d40:	ff 70 0c             	pushl  0xc(%eax)
 8049d43:	8b 40 10             	mov    0x10(%eax),%eax
 8049d46:	ff 30                	pushl  (%eax)
 8049d48:	8d 44 24 1c          	lea    0x1c(%esp),%eax
 8049d4c:	50                   	push   %eax
 8049d4d:	e8 7e ea ff ff       	call   80487d0 <__memmove_chk@plt>
 8049d52:	66 c7 44 24 1e 3b 6e 	movw   $0x6e3b,0x1e(%esp)
 8049d59:	83 c4 0c             	add    $0xc,%esp
 8049d5c:	6a 10                	push   $0x10
 8049d5e:	57                   	push   %edi
 8049d5f:	53                   	push   %ebx
 8049d60:	e8 2b eb ff ff       	call   8048890 <connect@plt>
 8049d65:	83 c4 10             	add    $0x10,%esp
 8049d68:	85 c0                	test   %eax,%eax
 8049d6a:	79 2a                	jns    8049d96 <init_driver+0x19f>
 8049d6c:	83 ec 0c             	sub    $0xc,%esp
 8049d6f:	68 8c a3 04 08       	push   $0x804a38c
 8049d74:	68 4c a3 04 08       	push   $0x804a34c
 8049d79:	6a ff                	push   $0xffffffff
 8049d7b:	6a 01                	push   $0x1
 8049d7d:	56                   	push   %esi
 8049d7e:	e8 3d eb ff ff       	call   80488c0 <__sprintf_chk@plt>
 8049d83:	83 c4 14             	add    $0x14,%esp
 8049d86:	53                   	push   %ebx
 8049d87:	e8 14 eb ff ff       	call   80488a0 <close@plt>
 8049d8c:	83 c4 10             	add    $0x10,%esp
 8049d8f:	b8 ff ff ff ff       	mov    $0xffffffff,%eax
 8049d94:	eb 1a                	jmp    8049db0 <init_driver+0x1b9>
 8049d96:	83 ec 0c             	sub    $0xc,%esp
 8049d99:	53                   	push   %ebx
 8049d9a:	e8 01 eb ff ff       	call   80488a0 <close@plt>
 8049d9f:	66 c7 06 4f 4b       	movw   $0x4b4f,(%esi)
 8049da4:	c6 46 02 00          	movb   $0x0,0x2(%esi)
 8049da8:	83 c4 10             	add    $0x10,%esp
 8049dab:	b8 00 00 00 00       	mov    $0x0,%eax
 8049db0:	8b 54 24 1c          	mov    0x1c(%esp),%edx
 8049db4:	65 33 15 14 00 00 00 	xor    %gs:0x14,%edx
 8049dbb:	74 05                	je     8049dc2 <init_driver+0x1cb>
 8049dbd:	e8 ce e9 ff ff       	call   8048790 <__stack_chk_fail@plt>
 8049dc2:	83 c4 20             	add    $0x20,%esp
 8049dc5:	5b                   	pop    %ebx
 8049dc6:	5e                   	pop    %esi
 8049dc7:	5f                   	pop    %edi
 8049dc8:	c3                   	ret    

08049dc9 <driver_post>:
 8049dc9:	53                   	push   %ebx
 8049dca:	83 ec 08             	sub    $0x8,%esp
 8049dcd:	8b 44 24 10          	mov    0x10(%esp),%eax
 8049dd1:	8b 5c 24 1c          	mov    0x1c(%esp),%ebx
 8049dd5:	83 7c 24 18 00       	cmpl   $0x0,0x18(%esp)
 8049dda:	74 26                	je     8049e02 <driver_post+0x39>
 8049ddc:	83 ec 04             	sub    $0x4,%esp
 8049ddf:	ff 74 24 18          	pushl  0x18(%esp)
 8049de3:	68 9a a3 04 08       	push   $0x804a39a
 8049de8:	6a 01                	push   $0x1
 8049dea:	e8 51 ea ff ff       	call   8048840 <__printf_chk@plt>
 8049def:	66 c7 03 4f 4b       	movw   $0x4b4f,(%ebx)
 8049df4:	c6 43 02 00          	movb   $0x0,0x2(%ebx)
 8049df8:	83 c4 10             	add    $0x10,%esp
 8049dfb:	b8 00 00 00 00       	mov    $0x0,%eax
 8049e00:	eb 3e                	jmp    8049e40 <driver_post+0x77>
 8049e02:	85 c0                	test   %eax,%eax
 8049e04:	74 2c                	je     8049e32 <driver_post+0x69>
 8049e06:	80 38 00             	cmpb   $0x0,(%eax)
 8049e09:	74 27                	je     8049e32 <driver_post+0x69>
 8049e0b:	83 ec 04             	sub    $0x4,%esp
 8049e0e:	53                   	push   %ebx
 8049e0f:	ff 74 24 1c          	pushl  0x1c(%esp)
 8049e13:	68 b1 a3 04 08       	push   $0x804a3b1
 8049e18:	50                   	push   %eax
 8049e19:	68 b9 a3 04 08       	push   $0x804a3b9
 8049e1e:	68 6e 3b 00 00       	push   $0x3b6e
 8049e23:	68 8c a3 04 08       	push   $0x804a38c
 8049e28:	e8 cb f5 ff ff       	call   80493f8 <submitr>
 8049e2d:	83 c4 20             	add    $0x20,%esp
 8049e30:	eb 0e                	jmp    8049e40 <driver_post+0x77>
 8049e32:	66 c7 03 4f 4b       	movw   $0x4b4f,(%ebx)
 8049e37:	c6 43 02 00          	movb   $0x0,0x2(%ebx)
 8049e3b:	b8 00 00 00 00       	mov    $0x0,%eax
 8049e40:	83 c4 08             	add    $0x8,%esp
 8049e43:	5b                   	pop    %ebx
 8049e44:	c3                   	ret    
 8049e45:	66 90                	xchg   %ax,%ax
 8049e47:	66 90                	xchg   %ax,%ax
 8049e49:	66 90                	xchg   %ax,%ax
 8049e4b:	66 90                	xchg   %ax,%ax
 8049e4d:	66 90                	xchg   %ax,%ax
 8049e4f:	90                   	nop

08049e50 <__libc_csu_init>:
 8049e50:	55                   	push   %ebp
 8049e51:	57                   	push   %edi
 8049e52:	56                   	push   %esi
 8049e53:	53                   	push   %ebx
 8049e54:	e8 b7 ea ff ff       	call   8048910 <__x86.get_pc_thunk.bx>
 8049e59:	81 c3 a7 21 00 00    	add    $0x21a7,%ebx
 8049e5f:	83 ec 0c             	sub    $0xc,%esp
 8049e62:	8b 6c 24 20          	mov    0x20(%esp),%ebp
 8049e66:	8d b3 0c ff ff ff    	lea    -0xf4(%ebx),%esi
 8049e6c:	e8 83 e8 ff ff       	call   80486f4 <_init>
 8049e71:	8d 83 08 ff ff ff    	lea    -0xf8(%ebx),%eax
 8049e77:	29 c6                	sub    %eax,%esi
 8049e79:	c1 fe 02             	sar    $0x2,%esi
 8049e7c:	85 f6                	test   %esi,%esi
 8049e7e:	74 25                	je     8049ea5 <__libc_csu_init+0x55>
 8049e80:	31 ff                	xor    %edi,%edi
 8049e82:	8d b6 00 00 00 00    	lea    0x0(%esi),%esi
 8049e88:	83 ec 04             	sub    $0x4,%esp
 8049e8b:	ff 74 24 2c          	pushl  0x2c(%esp)
 8049e8f:	ff 74 24 2c          	pushl  0x2c(%esp)
 8049e93:	55                   	push   %ebp
 8049e94:	ff 94 bb 08 ff ff ff 	call   *-0xf8(%ebx,%edi,4)
 8049e9b:	83 c7 01             	add    $0x1,%edi
 8049e9e:	83 c4 10             	add    $0x10,%esp
 8049ea1:	39 f7                	cmp    %esi,%edi
 8049ea3:	75 e3                	jne    8049e88 <__libc_csu_init+0x38>
 8049ea5:	83 c4 0c             	add    $0xc,%esp
 8049ea8:	5b                   	pop    %ebx
 8049ea9:	5e                   	pop    %esi
 8049eaa:	5f                   	pop    %edi
 8049eab:	5d                   	pop    %ebp
 8049eac:	c3                   	ret    
 8049ead:	8d 76 00             	lea    0x0(%esi),%esi

08049eb0 <__libc_csu_fini>:
 8049eb0:	f3 c3                	repz ret 

Disassembly of section .fini:

08049eb4 <_fini>:
 8049eb4:	53                   	push   %ebx
 8049eb5:	83 ec 08             	sub    $0x8,%esp
 8049eb8:	e8 53 ea ff ff       	call   8048910 <__x86.get_pc_thunk.bx>
 8049ebd:	81 c3 43 21 00 00    	add    $0x2143,%ebx
 8049ec3:	83 c4 08             	add    $0x8,%esp
 8049ec6:	5b                   	pop    %ebx
 8049ec7:	c3                   	ret    
